
/home/rainy/ics2023/nanos-lite/build/nanos-lite-riscv32-nemu.elf：     文件格式 elf32-littleriscv


Disassembly of section .text:

80000000 <_start>:
80000000:	00000413          	li	s0,0
80000004:	02148117          	auipc	sp,0x2148
80000008:	ffc10113          	addi	sp,sp,-4 # 82148000 <_end>
8000000c:	1c0010ef          	jal	ra,800011cc <_trm_init>

80000010 <do_syscall>:
80000010:	04452703          	lw	a4,68(a0)
80000014:	fe010113          	addi	sp,sp,-32
80000018:	00812c23          	sw	s0,24(sp)
8000001c:	00112e23          	sw	ra,28(sp)
80000020:	00050413          	mv	s0,a0
80000024:	01300793          	li	a5,19
80000028:	02852503          	lw	a0,40(a0)
8000002c:	02c42583          	lw	a1,44(s0)
80000030:	03042603          	lw	a2,48(s0)
80000034:	10e7e663          	bltu	a5,a4,80000140 <do_syscall+0x130>
80000038:	00002697          	auipc	a3,0x2
8000003c:	69868693          	addi	a3,a3,1688 # 800026d0 <_etext+0x7c>
80000040:	00271793          	slli	a5,a4,0x2
80000044:	00d787b3          	add	a5,a5,a3
80000048:	0007a783          	lw	a5,0(a5)
8000004c:	00d787b3          	add	a5,a5,a3
80000050:	00078067          	jr	a5
80000054:	664010ef          	jal	ra,800016b8 <yield>
80000058:	00000513          	li	a0,0
8000005c:	01c12083          	lw	ra,28(sp)
80000060:	02a42423          	sw	a0,40(s0)
80000064:	01812403          	lw	s0,24(sp)
80000068:	02010113          	addi	sp,sp,32
8000006c:	00008067          	ret
80000070:	4e0000ef          	jal	ra,80000550 <fs_open>
80000074:	01c12083          	lw	ra,28(sp)
80000078:	02a42423          	sw	a0,40(s0)
8000007c:	01812403          	lw	s0,24(sp)
80000080:	02010113          	addi	sp,sp,32
80000084:	00008067          	ret
80000088:	578000ef          	jal	ra,80000600 <fs_read>
8000008c:	01c12083          	lw	ra,28(sp)
80000090:	02a42423          	sw	a0,40(s0)
80000094:	01812403          	lw	s0,24(sp)
80000098:	02010113          	addi	sp,sp,32
8000009c:	00008067          	ret
800000a0:	328000ef          	jal	ra,800003c8 <fs_write>
800000a4:	01c12083          	lw	ra,28(sp)
800000a8:	02a42423          	sw	a0,40(s0)
800000ac:	01812403          	lw	s0,24(sp)
800000b0:	02010113          	addi	sp,sp,32
800000b4:	00008067          	ret
800000b8:	52c000ef          	jal	ra,800005e4 <fs_close>
800000bc:	01c12083          	lw	ra,28(sp)
800000c0:	02a42423          	sw	a0,40(s0)
800000c4:	01812403          	lw	s0,24(sp)
800000c8:	02010113          	addi	sp,sp,32
800000cc:	00008067          	ret
800000d0:	3b4000ef          	jal	ra,80000484 <fs_lseek>
800000d4:	01c12083          	lw	ra,28(sp)
800000d8:	02a42423          	sw	a0,40(s0)
800000dc:	01812403          	lw	s0,24(sp)
800000e0:	02010113          	addi	sp,sp,32
800000e4:	00008067          	ret
800000e8:	1f8000ef          	jal	ra,800002e0 <mm_brk>
800000ec:	00000513          	li	a0,0
800000f0:	01c12083          	lw	ra,28(sp)
800000f4:	02a42423          	sw	a0,40(s0)
800000f8:	01812403          	lw	s0,24(sp)
800000fc:	02010113          	addi	sp,sp,32
80000100:	00008067          	ret
80000104:	648000ef          	jal	ra,8000074c <execve>
80000108:	01c12083          	lw	ra,28(sp)
8000010c:	02a42423          	sw	a0,40(s0)
80000110:	01812403          	lw	s0,24(sp)
80000114:	02010113          	addi	sp,sp,32
80000118:	00008067          	ret
8000011c:	00810593          	addi	a1,sp,8
80000120:	00600513          	li	a0,6
80000124:	1b8010ef          	jal	ra,800012dc <ioe_read>
80000128:	00812503          	lw	a0,8(sp)
8000012c:	01c12083          	lw	ra,28(sp)
80000130:	02a42423          	sw	a0,40(s0)
80000134:	01812403          	lw	s0,24(sp)
80000138:	02010113          	addi	sp,sp,32
8000013c:	00008067          	ret
80000140:	00002697          	auipc	a3,0x2
80000144:	5e068693          	addi	a3,a3,1504 # 80002720 <__func__.0>
80000148:	06500613          	li	a2,101
8000014c:	00002597          	auipc	a1,0x2
80000150:	50858593          	addi	a1,a1,1288 # 80002654 <_etext>
80000154:	00002517          	auipc	a0,0x2
80000158:	53050513          	addi	a0,a0,1328 # 80002684 <_etext+0x30>
8000015c:	2fc020ef          	jal	ra,80002458 <printf>
80000160:	00100513          	li	a0,1
80000164:	05c010ef          	jal	ra,800011c0 <halt>

80000168 <main>:
80000168:	ff010113          	addi	sp,sp,-16
8000016c:	00002597          	auipc	a1,0x2
80000170:	5bf58593          	addi	a1,a1,1471 # 8000272b <logo>
80000174:	00003517          	auipc	a0,0x3
80000178:	b3450513          	addi	a0,a0,-1228 # 80002ca8 <logo+0x57d>
8000017c:	00112623          	sw	ra,12(sp)
80000180:	00812423          	sw	s0,8(sp)
80000184:	2d4020ef          	jal	ra,80002458 <printf>
80000188:	00004417          	auipc	s0,0x4
8000018c:	c9040413          	addi	s0,s0,-880 # 80003e18 <__func__.0>
80000190:	00040693          	mv	a3,s0
80000194:	00d00613          	li	a2,13
80000198:	00003597          	auipc	a1,0x3
8000019c:	b1458593          	addi	a1,a1,-1260 # 80002cac <logo+0x581>
800001a0:	00003517          	auipc	a0,0x3
800001a4:	b3850513          	addi	a0,a0,-1224 # 80002cd8 <logo+0x5ad>
800001a8:	2b0020ef          	jal	ra,80002458 <printf>
800001ac:	00003797          	auipc	a5,0x3
800001b0:	b6478793          	addi	a5,a5,-1180 # 80002d10 <logo+0x5e5>
800001b4:	00003717          	auipc	a4,0x3
800001b8:	b6870713          	addi	a4,a4,-1176 # 80002d1c <logo+0x5f1>
800001bc:	00e00613          	li	a2,14
800001c0:	00003597          	auipc	a1,0x3
800001c4:	aec58593          	addi	a1,a1,-1300 # 80002cac <logo+0x581>
800001c8:	00040693          	mv	a3,s0
800001cc:	00003517          	auipc	a0,0x3
800001d0:	b5c50513          	addi	a0,a0,-1188 # 80002d28 <logo+0x5fd>
800001d4:	284020ef          	jal	ra,80002458 <printf>
800001d8:	124000ef          	jal	ra,800002fc <init_mm>
800001dc:	7a5000ef          	jal	ra,80001180 <init_device>
800001e0:	7fc000ef          	jal	ra,800009dc <init_ramdisk>
800001e4:	0dd000ef          	jal	ra,80000ac0 <init_irq>
800001e8:	4cc000ef          	jal	ra,800006b4 <init_fs>
800001ec:	610000ef          	jal	ra,800007fc <init_proc>
800001f0:	00040693          	mv	a3,s0
800001f4:	01e00613          	li	a2,30
800001f8:	00003597          	auipc	a1,0x3
800001fc:	ab458593          	addi	a1,a1,-1356 # 80002cac <logo+0x581>
80000200:	00003517          	auipc	a0,0x3
80000204:	b5450513          	addi	a0,a0,-1196 # 80002d54 <logo+0x629>
80000208:	250020ef          	jal	ra,80002458 <printf>
8000020c:	4ac010ef          	jal	ra,800016b8 <yield>
80000210:	00040693          	mv	a3,s0
80000214:	02400613          	li	a2,36
80000218:	00003597          	auipc	a1,0x3
8000021c:	a9458593          	addi	a1,a1,-1388 # 80002cac <logo+0x581>
80000220:	00003517          	auipc	a0,0x3
80000224:	b6450513          	addi	a0,a0,-1180 # 80002d84 <logo+0x659>
80000228:	230020ef          	jal	ra,80002458 <printf>
8000022c:	00100513          	li	a0,1
80000230:	791000ef          	jal	ra,800011c0 <halt>

80000234 <free_page>:
80000234:	ff010113          	addi	sp,sp,-16
80000238:	00003697          	auipc	a3,0x3
8000023c:	c3468693          	addi	a3,a3,-972 # 80002e6c <__func__.1>
80000240:	01700613          	li	a2,23
80000244:	00003597          	auipc	a1,0x3
80000248:	b8458593          	addi	a1,a1,-1148 # 80002dc8 <logo+0x69d>
8000024c:	00003517          	auipc	a0,0x3
80000250:	ba450513          	addi	a0,a0,-1116 # 80002df0 <logo+0x6c5>
80000254:	00112623          	sw	ra,12(sp)
80000258:	200020ef          	jal	ra,80002458 <printf>
8000025c:	00100513          	li	a0,1
80000260:	761000ef          	jal	ra,800011c0 <halt>

80000264 <pg_alloc>:
80000264:	41f55793          	srai	a5,a0,0x1f
80000268:	01479793          	slli	a5,a5,0x14
8000026c:	ff010113          	addi	sp,sp,-16
80000270:	0213f717          	auipc	a4,0x213f
80000274:	da070713          	addi	a4,a4,-608 # 8213f010 <pf>
80000278:	0147d793          	srli	a5,a5,0x14
8000027c:	00812423          	sw	s0,8(sp)
80000280:	00a787b3          	add	a5,a5,a0
80000284:	00072403          	lw	s0,0(a4)
80000288:	40c7d793          	srai	a5,a5,0xc
8000028c:	00c79793          	slli	a5,a5,0xc
80000290:	00112623          	sw	ra,12(sp)
80000294:	00f407b3          	add	a5,s0,a5
80000298:	00050613          	mv	a2,a0
8000029c:	00000593          	li	a1,0
800002a0:	00040513          	mv	a0,s0
800002a4:	00f72023          	sw	a5,0(a4)
800002a8:	368020ef          	jal	ra,80002610 <memset>
800002ac:	00c12083          	lw	ra,12(sp)
800002b0:	00040513          	mv	a0,s0
800002b4:	00812403          	lw	s0,8(sp)
800002b8:	01010113          	addi	sp,sp,16
800002bc:	00008067          	ret

800002c0 <new_page>:
800002c0:	0213f717          	auipc	a4,0x213f
800002c4:	d5070713          	addi	a4,a4,-688 # 8213f010 <pf>
800002c8:	00072783          	lw	a5,0(a4)
800002cc:	00c51513          	slli	a0,a0,0xc
800002d0:	00a78533          	add	a0,a5,a0
800002d4:	00a72023          	sw	a0,0(a4)
800002d8:	00078513          	mv	a0,a5
800002dc:	00008067          	ret

800002e0 <mm_brk>:
800002e0:	0213f797          	auipc	a5,0x213f
800002e4:	d347a783          	lw	a5,-716(a5) # 8213f014 <current>
800002e8:	0147a703          	lw	a4,20(a5)
800002ec:	00a77463          	bgeu	a4,a0,800002f4 <mm_brk+0x14>
800002f0:	00a7aa23          	sw	a0,20(a5)
800002f4:	00000513          	li	a0,0
800002f8:	00008067          	ret

800002fc <init_mm>:
800002fc:	00001737          	lui	a4,0x1
80000300:	02112797          	auipc	a5,0x2112
80000304:	b647a783          	lw	a5,-1180(a5) # 82111e64 <heap>
80000308:	fff70713          	addi	a4,a4,-1 # fff <_entry_offset+0xfff>
8000030c:	00e787b3          	add	a5,a5,a4
80000310:	fffff737          	lui	a4,0xfffff
80000314:	00e7f7b3          	and	a5,a5,a4
80000318:	ff010113          	addi	sp,sp,-16
8000031c:	00003597          	auipc	a1,0x3
80000320:	aac58593          	addi	a1,a1,-1364 # 80002dc8 <logo+0x69d>
80000324:	00078713          	mv	a4,a5
80000328:	00004697          	auipc	a3,0x4
8000032c:	af868693          	addi	a3,a3,-1288 # 80003e20 <__func__.0>
80000330:	03800613          	li	a2,56
80000334:	00003517          	auipc	a0,0x3
80000338:	afc50513          	addi	a0,a0,-1284 # 80002e30 <logo+0x705>
8000033c:	00112623          	sw	ra,12(sp)
80000340:	0213f817          	auipc	a6,0x213f
80000344:	ccf82823          	sw	a5,-816(a6) # 8213f010 <pf>
80000348:	110020ef          	jal	ra,80002458 <printf>
8000034c:	00c12083          	lw	ra,12(sp)
80000350:	00000597          	auipc	a1,0x0
80000354:	ee458593          	addi	a1,a1,-284 # 80000234 <free_page>
80000358:	00000517          	auipc	a0,0x0
8000035c:	f0c50513          	addi	a0,a0,-244 # 80000264 <pg_alloc>
80000360:	01010113          	addi	sp,sp,16
80000364:	6640106f          	j	800019c8 <vme_init>

80000368 <invalid_read>:
80000368:	ff010113          	addi	sp,sp,-16
8000036c:	00003697          	auipc	a3,0x3
80000370:	4a468693          	addi	a3,a3,1188 # 80003810 <__func__.2>
80000374:	01500613          	li	a2,21
80000378:	00003597          	auipc	a1,0x3
8000037c:	b0058593          	addi	a1,a1,-1280 # 80002e78 <__func__.1+0xc>
80000380:	00003517          	auipc	a0,0x3
80000384:	b2050513          	addi	a0,a0,-1248 # 80002ea0 <__func__.1+0x34>
80000388:	00112623          	sw	ra,12(sp)
8000038c:	0cc020ef          	jal	ra,80002458 <printf>
80000390:	00100513          	li	a0,1
80000394:	62d000ef          	jal	ra,800011c0 <halt>

80000398 <invalid_write>:
80000398:	ff010113          	addi	sp,sp,-16
8000039c:	00003697          	auipc	a3,0x3
800003a0:	46468693          	addi	a3,a3,1124 # 80003800 <__func__.1>
800003a4:	01a00613          	li	a2,26
800003a8:	00003597          	auipc	a1,0x3
800003ac:	ad058593          	addi	a1,a1,-1328 # 80002e78 <__func__.1+0xc>
800003b0:	00003517          	auipc	a0,0x3
800003b4:	af050513          	addi	a0,a0,-1296 # 80002ea0 <__func__.1+0x34>
800003b8:	00112623          	sw	ra,12(sp)
800003bc:	09c020ef          	jal	ra,80002458 <printf>
800003c0:	00100513          	li	a0,1
800003c4:	5fd000ef          	jal	ra,800011c0 <halt>

800003c8 <fs_write>:
800003c8:	ff010113          	addi	sp,sp,-16
800003cc:	00112623          	sw	ra,12(sp)
800003d0:	00812423          	sw	s0,8(sp)
800003d4:	00912223          	sw	s1,4(sp)
800003d8:	00001737          	lui	a4,0x1
800003dc:	00050793          	mv	a5,a0
800003e0:	08e57063          	bgeu	a0,a4,80000460 <fs_write+0x98>
800003e4:	00279693          	slli	a3,a5,0x2
800003e8:	00f687b3          	add	a5,a3,a5
800003ec:	02111717          	auipc	a4,0x2111
800003f0:	25870713          	addi	a4,a4,600 # 82111644 <file_table>
800003f4:	00279793          	slli	a5,a5,0x2
800003f8:	00e787b3          	add	a5,a5,a4
800003fc:	0107a703          	lw	a4,16(a5)
80000400:	00058513          	mv	a0,a1
80000404:	00070e63          	beqz	a4,80000420 <fs_write+0x58>
80000408:	00812403          	lw	s0,8(sp)
8000040c:	00c12083          	lw	ra,12(sp)
80000410:	00412483          	lw	s1,4(sp)
80000414:	00000593          	li	a1,0
80000418:	01010113          	addi	sp,sp,16
8000041c:	00070067          	jr	a4
80000420:	02113497          	auipc	s1,0x2113
80000424:	be048493          	addi	s1,s1,-1056 # 82113000 <open_offset>
80000428:	00d484b3          	add	s1,s1,a3
8000042c:	0087a583          	lw	a1,8(a5)
80000430:	0004a783          	lw	a5,0(s1)
80000434:	00060413          	mv	s0,a2
80000438:	00f585b3          	add	a1,a1,a5
8000043c:	520000ef          	jal	ra,8000095c <ramdisk_write>
80000440:	0004a783          	lw	a5,0(s1)
80000444:	00c12083          	lw	ra,12(sp)
80000448:	008787b3          	add	a5,a5,s0
8000044c:	00812403          	lw	s0,8(sp)
80000450:	00f4a023          	sw	a5,0(s1)
80000454:	00412483          	lw	s1,4(sp)
80000458:	01010113          	addi	sp,sp,16
8000045c:	00008067          	ret
80000460:	00003517          	auipc	a0,0x3
80000464:	a8450513          	addi	a0,a0,-1404 # 80002ee4 <__func__.1+0x78>
80000468:	7f1010ef          	jal	ra,80002458 <printf>
8000046c:	00c12083          	lw	ra,12(sp)
80000470:	00812403          	lw	s0,8(sp)
80000474:	00412483          	lw	s1,4(sp)
80000478:	fff00513          	li	a0,-1
8000047c:	01010113          	addi	sp,sp,16
80000480:	00008067          	ret

80000484 <fs_lseek>:
80000484:	ff010113          	addi	sp,sp,-16
80000488:	00112623          	sw	ra,12(sp)
8000048c:	00001737          	lui	a4,0x1
80000490:	0ae57263          	bgeu	a0,a4,80000534 <fs_lseek+0xb0>
80000494:	00100713          	li	a4,1
80000498:	00050793          	mv	a5,a0
8000049c:	06e60e63          	beq	a2,a4,80000518 <fs_lseek+0x94>
800004a0:	00200713          	li	a4,2
800004a4:	04e60463          	beq	a2,a4,800004ec <fs_lseek+0x68>
800004a8:	02060063          	beqz	a2,800004c8 <fs_lseek+0x44>
800004ac:	00003517          	auipc	a0,0x3
800004b0:	a5450513          	addi	a0,a0,-1452 # 80002f00 <__func__.1+0x94>
800004b4:	7a5010ef          	jal	ra,80002458 <printf>
800004b8:	00c12083          	lw	ra,12(sp)
800004bc:	fff00513          	li	a0,-1
800004c0:	01010113          	addi	sp,sp,16
800004c4:	00008067          	ret
800004c8:	00058513          	mv	a0,a1
800004cc:	02113717          	auipc	a4,0x2113
800004d0:	b3470713          	addi	a4,a4,-1228 # 82113000 <open_offset>
800004d4:	00279693          	slli	a3,a5,0x2
800004d8:	00c12083          	lw	ra,12(sp)
800004dc:	00d70733          	add	a4,a4,a3
800004e0:	00a72023          	sw	a0,0(a4)
800004e4:	01010113          	addi	sp,sp,16
800004e8:	00008067          	ret
800004ec:	00251693          	slli	a3,a0,0x2
800004f0:	00a687b3          	add	a5,a3,a0
800004f4:	02111717          	auipc	a4,0x2111
800004f8:	15070713          	addi	a4,a4,336 # 82111644 <file_table>
800004fc:	00279793          	slli	a5,a5,0x2
80000500:	00f707b3          	add	a5,a4,a5
80000504:	0047a783          	lw	a5,4(a5)
80000508:	02113717          	auipc	a4,0x2113
8000050c:	af870713          	addi	a4,a4,-1288 # 82113000 <open_offset>
80000510:	00f58533          	add	a0,a1,a5
80000514:	fc5ff06f          	j	800004d8 <fs_lseek+0x54>
80000518:	00251693          	slli	a3,a0,0x2
8000051c:	02113717          	auipc	a4,0x2113
80000520:	ae470713          	addi	a4,a4,-1308 # 82113000 <open_offset>
80000524:	00d707b3          	add	a5,a4,a3
80000528:	0007a783          	lw	a5,0(a5)
8000052c:	00f58533          	add	a0,a1,a5
80000530:	fa9ff06f          	j	800004d8 <fs_lseek+0x54>
80000534:	00003517          	auipc	a0,0x3
80000538:	9b050513          	addi	a0,a0,-1616 # 80002ee4 <__func__.1+0x78>
8000053c:	71d010ef          	jal	ra,80002458 <printf>
80000540:	00c12083          	lw	ra,12(sp)
80000544:	fff00513          	li	a0,-1
80000548:	01010113          	addi	sp,sp,16
8000054c:	00008067          	ret

80000550 <fs_open>:
80000550:	fe010113          	addi	sp,sp,-32
80000554:	00812c23          	sw	s0,24(sp)
80000558:	00912a23          	sw	s1,20(sp)
8000055c:	01212823          	sw	s2,16(sp)
80000560:	01312623          	sw	s3,12(sp)
80000564:	00112e23          	sw	ra,28(sp)
80000568:	00050913          	mv	s2,a0
8000056c:	02111417          	auipc	s0,0x2111
80000570:	0d840413          	addi	s0,s0,216 # 82111644 <file_table>
80000574:	00000493          	li	s1,0
80000578:	06800993          	li	s3,104
8000057c:	0100006f          	j	8000058c <fs_open+0x3c>
80000580:	00148493          	addi	s1,s1,1
80000584:	01440413          	addi	s0,s0,20
80000588:	03348a63          	beq	s1,s3,800005bc <fs_open+0x6c>
8000058c:	00042583          	lw	a1,0(s0)
80000590:	00090513          	mv	a0,s2
80000594:	034020ef          	jal	ra,800025c8 <strcmp>
80000598:	fe0514e3          	bnez	a0,80000580 <fs_open+0x30>
8000059c:	01c12083          	lw	ra,28(sp)
800005a0:	01812403          	lw	s0,24(sp)
800005a4:	01012903          	lw	s2,16(sp)
800005a8:	00c12983          	lw	s3,12(sp)
800005ac:	00048513          	mv	a0,s1
800005b0:	01412483          	lw	s1,20(sp)
800005b4:	02010113          	addi	sp,sp,32
800005b8:	00008067          	ret
800005bc:	00004697          	auipc	a3,0x4
800005c0:	86c68693          	addi	a3,a3,-1940 # 80003e28 <__func__.0>
800005c4:	06f00613          	li	a2,111
800005c8:	00003597          	auipc	a1,0x3
800005cc:	8b058593          	addi	a1,a1,-1872 # 80002e78 <__func__.1+0xc>
800005d0:	00003517          	auipc	a0,0x3
800005d4:	95050513          	addi	a0,a0,-1712 # 80002f20 <__func__.1+0xb4>
800005d8:	681010ef          	jal	ra,80002458 <printf>
800005dc:	00100513          	li	a0,1
800005e0:	3e1000ef          	jal	ra,800011c0 <halt>

800005e4 <fs_close>:
800005e4:	00251513          	slli	a0,a0,0x2
800005e8:	02113797          	auipc	a5,0x2113
800005ec:	a1878793          	addi	a5,a5,-1512 # 82113000 <open_offset>
800005f0:	00a787b3          	add	a5,a5,a0
800005f4:	0007a023          	sw	zero,0(a5)
800005f8:	00000513          	li	a0,0
800005fc:	00008067          	ret

80000600 <fs_read>:
80000600:	ff010113          	addi	sp,sp,-16
80000604:	00812423          	sw	s0,8(sp)
80000608:	00251413          	slli	s0,a0,0x2
8000060c:	00a40733          	add	a4,s0,a0
80000610:	02111817          	auipc	a6,0x2111
80000614:	03480813          	addi	a6,a6,52 # 82111644 <file_table>
80000618:	00271713          	slli	a4,a4,0x2
8000061c:	00e80733          	add	a4,a6,a4
80000620:	00c72883          	lw	a7,12(a4)
80000624:	00112623          	sw	ra,12(sp)
80000628:	00912223          	sw	s1,4(sp)
8000062c:	00050793          	mv	a5,a0
80000630:	00058513          	mv	a0,a1
80000634:	00088e63          	beqz	a7,80000650 <fs_read+0x50>
80000638:	00812403          	lw	s0,8(sp)
8000063c:	00c12083          	lw	ra,12(sp)
80000640:	00412483          	lw	s1,4(sp)
80000644:	00000593          	li	a1,0
80000648:	01010113          	addi	sp,sp,16
8000064c:	00088067          	jr	a7
80000650:	02113497          	auipc	s1,0x2113
80000654:	9b048493          	addi	s1,s1,-1616 # 82113000 <open_offset>
80000658:	00060693          	mv	a3,a2
8000065c:	00848633          	add	a2,s1,s0
80000660:	00062583          	lw	a1,0(a2)
80000664:	00472703          	lw	a4,4(a4)
80000668:	00d58633          	add	a2,a1,a3
8000066c:	00c77463          	bgeu	a4,a2,80000674 <fs_read+0x74>
80000670:	40b706b3          	sub	a3,a4,a1
80000674:	00f407b3          	add	a5,s0,a5
80000678:	00279793          	slli	a5,a5,0x2
8000067c:	00f80833          	add	a6,a6,a5
80000680:	00882783          	lw	a5,8(a6)
80000684:	00068613          	mv	a2,a3
80000688:	008484b3          	add	s1,s1,s0
8000068c:	00f585b3          	add	a1,a1,a5
80000690:	254000ef          	jal	ra,800008e4 <ramdisk_read>
80000694:	0004a783          	lw	a5,0(s1)
80000698:	00c12083          	lw	ra,12(sp)
8000069c:	00812403          	lw	s0,8(sp)
800006a0:	00a787b3          	add	a5,a5,a0
800006a4:	00f4a023          	sw	a5,0(s1)
800006a8:	00412483          	lw	s1,4(sp)
800006ac:	01010113          	addi	sp,sp,16
800006b0:	00008067          	ret

800006b4 <init_fs>:
800006b4:	fe010113          	addi	sp,sp,-32
800006b8:	00010593          	mv	a1,sp
800006bc:	00900513          	li	a0,9
800006c0:	00112e23          	sw	ra,28(sp)
800006c4:	419000ef          	jal	ra,800012dc <ioe_read>
800006c8:	00812703          	lw	a4,8(sp)
800006cc:	00412783          	lw	a5,4(sp)
800006d0:	01c12083          	lw	ra,28(sp)
800006d4:	02e787b3          	mul	a5,a5,a4
800006d8:	02111717          	auipc	a4,0x2111
800006dc:	fcf72a23          	sw	a5,-44(a4) # 821116ac <file_table+0x68>
800006e0:	02010113          	addi	sp,sp,32
800006e4:	00008067          	ret

800006e8 <hello_fun>:
800006e8:	fe010113          	addi	sp,sp,-32
800006ec:	00812c23          	sw	s0,24(sp)
800006f0:	00912a23          	sw	s1,20(sp)
800006f4:	01212823          	sw	s2,16(sp)
800006f8:	01312623          	sw	s3,12(sp)
800006fc:	01412423          	sw	s4,8(sp)
80000700:	00112e23          	sw	ra,28(sp)
80000704:	00050493          	mv	s1,a0
80000708:	00100413          	li	s0,1
8000070c:	00003a17          	auipc	s4,0x3
80000710:	228a0a13          	addi	s4,s4,552 # 80003934 <__func__.2>
80000714:	00003997          	auipc	s3,0x3
80000718:	10c98993          	addi	s3,s3,268 # 80003820 <__func__.2+0x10>
8000071c:	00003917          	auipc	s2,0x3
80000720:	13090913          	addi	s2,s2,304 # 8000384c <__func__.2+0x3c>
80000724:	00040793          	mv	a5,s0
80000728:	00048713          	mv	a4,s1
8000072c:	000a0693          	mv	a3,s4
80000730:	01000613          	li	a2,16
80000734:	00098593          	mv	a1,s3
80000738:	00090513          	mv	a0,s2
8000073c:	51d010ef          	jal	ra,80002458 <printf>
80000740:	00140413          	addi	s0,s0,1
80000744:	775000ef          	jal	ra,800016b8 <yield>
80000748:	fddff06f          	j	80000724 <hello_fun+0x3c>

8000074c <execve>:
8000074c:	fe010113          	addi	sp,sp,-32
80000750:	00912a23          	sw	s1,20(sp)
80000754:	01212823          	sw	s2,16(sp)
80000758:	00058493          	mv	s1,a1
8000075c:	00060913          	mv	s2,a2
80000760:	00000593          	li	a1,0
80000764:	00000613          	li	a2,0
80000768:	00812c23          	sw	s0,24(sp)
8000076c:	00112e23          	sw	ra,28(sp)
80000770:	01312623          	sw	s3,12(sp)
80000774:	00050413          	mv	s0,a0
80000778:	dd9ff0ef          	jal	ra,80000550 <fs_open>
8000077c:	fff00793          	li	a5,-1
80000780:	04f50a63          	beq	a0,a5,800007d4 <execve+0x88>
80000784:	e61ff0ef          	jal	ra,800005e4 <fs_close>
80000788:	0213f997          	auipc	s3,0x213f
8000078c:	88c98993          	addi	s3,s3,-1908 # 8213f014 <current>
80000790:	0009a503          	lw	a0,0(s3)
80000794:	00090693          	mv	a3,s2
80000798:	00048613          	mv	a2,s1
8000079c:	00040593          	mv	a1,s0
800007a0:	578000ef          	jal	ra,80000d18 <context_uload>
800007a4:	02137797          	auipc	a5,0x2137
800007a8:	85c78793          	addi	a5,a5,-1956 # 82137000 <pcb_boot>
800007ac:	00f9a023          	sw	a5,0(s3)
800007b0:	709000ef          	jal	ra,800016b8 <yield>
800007b4:	01c12083          	lw	ra,28(sp)
800007b8:	01812403          	lw	s0,24(sp)
800007bc:	01412483          	lw	s1,20(sp)
800007c0:	01012903          	lw	s2,16(sp)
800007c4:	00c12983          	lw	s3,12(sp)
800007c8:	00000513          	li	a0,0
800007cc:	02010113          	addi	sp,sp,32
800007d0:	00008067          	ret
800007d4:	00003697          	auipc	a3,0x3
800007d8:	65c68693          	addi	a3,a3,1628 # 80003e30 <__func__.1>
800007dc:	01900613          	li	a2,25
800007e0:	00003597          	auipc	a1,0x3
800007e4:	04058593          	addi	a1,a1,64 # 80003820 <__func__.2+0x10>
800007e8:	00003517          	auipc	a0,0x3
800007ec:	0bc50513          	addi	a0,a0,188 # 800038a4 <__func__.2+0x94>
800007f0:	469010ef          	jal	ra,80002458 <printf>
800007f4:	00100513          	li	a0,1
800007f8:	1c9000ef          	jal	ra,800011c0 <halt>

800007fc <init_proc>:
800007fc:	fe010113          	addi	sp,sp,-32
80000800:	00812c23          	sw	s0,24(sp)
80000804:	00912a23          	sw	s1,20(sp)
80000808:	00003697          	auipc	a3,0x3
8000080c:	12068693          	addi	a3,a3,288 # 80003928 <__func__.0>
80000810:	0213f417          	auipc	s0,0x213f
80000814:	80440413          	addi	s0,s0,-2044 # 8213f014 <current>
80000818:	02136497          	auipc	s1,0x2136
8000081c:	7e848493          	addi	s1,s1,2024 # 82137000 <pcb_boot>
80000820:	02a00613          	li	a2,42
80000824:	00003597          	auipc	a1,0x3
80000828:	ffc58593          	addi	a1,a1,-4 # 80003820 <__func__.2+0x10>
8000082c:	00003517          	auipc	a0,0x3
80000830:	0b450513          	addi	a0,a0,180 # 800038e0 <__func__.2+0xd0>
80000834:	00112e23          	sw	ra,28(sp)
80000838:	00942023          	sw	s1,0(s0)
8000083c:	41d010ef          	jal	ra,80002458 <printf>
80000840:	00003617          	auipc	a2,0x3
80000844:	0d460613          	addi	a2,a2,212 # 80003914 <__func__.2+0x104>
80000848:	00000597          	auipc	a1,0x0
8000084c:	ea058593          	addi	a1,a1,-352 # 800006e8 <hello_fun>
80000850:	02116517          	auipc	a0,0x2116
80000854:	7b050513          	addi	a0,a0,1968 # 82117000 <pcb>
80000858:	488000ef          	jal	ra,80000ce0 <context_kload>
8000085c:	00410693          	addi	a3,sp,4
80000860:	00810613          	addi	a2,sp,8
80000864:	00003797          	auipc	a5,0x3
80000868:	0bc78793          	addi	a5,a5,188 # 80003920 <__func__.2+0x110>
8000086c:	00003597          	auipc	a1,0x3
80000870:	edc58593          	addi	a1,a1,-292 # 80003748 <__func__.1+0x8dc>
80000874:	0211e517          	auipc	a0,0x211e
80000878:	78c50513          	addi	a0,a0,1932 # 8211f000 <pcb+0x8000>
8000087c:	00012423          	sw	zero,8(sp)
80000880:	00f12623          	sw	a5,12(sp)
80000884:	00012223          	sw	zero,4(sp)
80000888:	490000ef          	jal	ra,80000d18 <context_uload>
8000088c:	01c12083          	lw	ra,28(sp)
80000890:	00942023          	sw	s1,0(s0)
80000894:	01812403          	lw	s0,24(sp)
80000898:	01412483          	lw	s1,20(sp)
8000089c:	02010113          	addi	sp,sp,32
800008a0:	00008067          	ret

800008a4 <schedule>:
800008a4:	0213e717          	auipc	a4,0x213e
800008a8:	77070713          	addi	a4,a4,1904 # 8213f014 <current>
800008ac:	00072683          	lw	a3,0(a4)
800008b0:	02116797          	auipc	a5,0x2116
800008b4:	75078793          	addi	a5,a5,1872 # 82117000 <pcb>
800008b8:	00a6a023          	sw	a0,0(a3)
800008bc:	00072683          	lw	a3,0(a4)
800008c0:	00f68863          	beq	a3,a5,800008d0 <schedule+0x2c>
800008c4:	0007a503          	lw	a0,0(a5)
800008c8:	00f72023          	sw	a5,0(a4)
800008cc:	00008067          	ret
800008d0:	0211e797          	auipc	a5,0x211e
800008d4:	73078793          	addi	a5,a5,1840 # 8211f000 <pcb+0x8000>
800008d8:	0007a503          	lw	a0,0(a5)
800008dc:	00f72023          	sw	a5,0(a4)
800008e0:	00008067          	ret

800008e4 <ramdisk_read>:
800008e4:	ff010113          	addi	sp,sp,-16
800008e8:	00003717          	auipc	a4,0x3
800008ec:	55970713          	addi	a4,a4,1369 # 80003e41 <ramdisk_start>
800008f0:	02111797          	auipc	a5,0x2111
800008f4:	d5178793          	addi	a5,a5,-687 # 82111641 <_data>
800008f8:	00112623          	sw	ra,12(sp)
800008fc:	00812423          	sw	s0,8(sp)
80000900:	00c586b3          	add	a3,a1,a2
80000904:	40e787b3          	sub	a5,a5,a4
80000908:	02d7e263          	bltu	a5,a3,8000092c <ramdisk_read+0x48>
8000090c:	00b705b3          	add	a1,a4,a1
80000910:	00060413          	mv	s0,a2
80000914:	51d010ef          	jal	ra,80002630 <memcpy>
80000918:	00c12083          	lw	ra,12(sp)
8000091c:	00040513          	mv	a0,s0
80000920:	00812403          	lw	s0,8(sp)
80000924:	01010113          	addi	sp,sp,16
80000928:	00008067          	ret
8000092c:	00003717          	auipc	a4,0x3
80000930:	01470713          	addi	a4,a4,20 # 80003940 <__func__.2+0xc>
80000934:	00003697          	auipc	a3,0x3
80000938:	10c68693          	addi	a3,a3,268 # 80003a40 <__func__.2>
8000093c:	00f00613          	li	a2,15
80000940:	00003597          	auipc	a1,0x3
80000944:	02058593          	addi	a1,a1,32 # 80003960 <__func__.2+0x2c>
80000948:	00003517          	auipc	a0,0x3
8000094c:	04850513          	addi	a0,a0,72 # 80003990 <__func__.2+0x5c>
80000950:	309010ef          	jal	ra,80002458 <printf>
80000954:	00100513          	li	a0,1
80000958:	069000ef          	jal	ra,800011c0 <halt>

8000095c <ramdisk_write>:
8000095c:	ff010113          	addi	sp,sp,-16
80000960:	00003697          	auipc	a3,0x3
80000964:	4e168693          	addi	a3,a3,1249 # 80003e41 <ramdisk_start>
80000968:	02111717          	auipc	a4,0x2111
8000096c:	cd970713          	addi	a4,a4,-807 # 82111641 <_data>
80000970:	00112623          	sw	ra,12(sp)
80000974:	00812423          	sw	s0,8(sp)
80000978:	00c58833          	add	a6,a1,a2
8000097c:	40d70733          	sub	a4,a4,a3
80000980:	03076663          	bltu	a4,a6,800009ac <ramdisk_write+0x50>
80000984:	00058793          	mv	a5,a1
80000988:	00050593          	mv	a1,a0
8000098c:	00f68533          	add	a0,a3,a5
80000990:	00060413          	mv	s0,a2
80000994:	49d010ef          	jal	ra,80002630 <memcpy>
80000998:	00c12083          	lw	ra,12(sp)
8000099c:	00040513          	mv	a0,s0
800009a0:	00812403          	lw	s0,8(sp)
800009a4:	01010113          	addi	sp,sp,16
800009a8:	00008067          	ret
800009ac:	00003717          	auipc	a4,0x3
800009b0:	f9470713          	addi	a4,a4,-108 # 80003940 <__func__.2+0xc>
800009b4:	00003697          	auipc	a3,0x3
800009b8:	07c68693          	addi	a3,a3,124 # 80003a30 <__func__.1>
800009bc:	01700613          	li	a2,23
800009c0:	00003597          	auipc	a1,0x3
800009c4:	fa058593          	addi	a1,a1,-96 # 80003960 <__func__.2+0x2c>
800009c8:	00003517          	auipc	a0,0x3
800009cc:	fc850513          	addi	a0,a0,-56 # 80003990 <__func__.2+0x5c>
800009d0:	289010ef          	jal	ra,80002458 <printf>
800009d4:	00100513          	li	a0,1
800009d8:	7e8000ef          	jal	ra,800011c0 <halt>

800009dc <init_ramdisk>:
800009dc:	02111797          	auipc	a5,0x2111
800009e0:	c6578793          	addi	a5,a5,-923 # 82111641 <_data>
800009e4:	00003717          	auipc	a4,0x3
800009e8:	45d70713          	addi	a4,a4,1117 # 80003e41 <ramdisk_start>
800009ec:	40e78833          	sub	a6,a5,a4
800009f0:	00003697          	auipc	a3,0x3
800009f4:	03068693          	addi	a3,a3,48 # 80003a20 <__func__.0>
800009f8:	01d00613          	li	a2,29
800009fc:	00003597          	auipc	a1,0x3
80000a00:	f6458593          	addi	a1,a1,-156 # 80003960 <__func__.2+0x2c>
80000a04:	00003517          	auipc	a0,0x3
80000a08:	fd050513          	addi	a0,a0,-48 # 800039d4 <__func__.2+0xa0>
80000a0c:	24d0106f          	j	80002458 <printf>

80000a10 <do_event>:
80000a10:	00052703          	lw	a4,0(a0)
80000a14:	ff010113          	addi	sp,sp,-16
80000a18:	00812423          	sw	s0,8(sp)
80000a1c:	00112623          	sw	ra,12(sp)
80000a20:	00400793          	li	a5,4
80000a24:	00058413          	mv	s0,a1
80000a28:	00f70c63          	beq	a4,a5,80000a40 <do_event+0x30>
80000a2c:	02e7e863          	bltu	a5,a4,80000a5c <do_event+0x4c>
80000a30:	00100793          	li	a5,1
80000a34:	04f70863          	beq	a4,a5,80000a84 <do_event+0x74>
80000a38:	00200793          	li	a5,2
80000a3c:	04f71e63          	bne	a4,a5,80000a98 <do_event+0x88>
80000a40:	00040513          	mv	a0,s0
80000a44:	dccff0ef          	jal	ra,80000010 <do_syscall>
80000a48:	00c12083          	lw	ra,12(sp)
80000a4c:	00040513          	mv	a0,s0
80000a50:	00812403          	lw	s0,8(sp)
80000a54:	01010113          	addi	sp,sp,16
80000a58:	00008067          	ret
80000a5c:	00500793          	li	a5,5
80000a60:	02f71c63          	bne	a4,a5,80000a98 <do_event+0x88>
80000a64:	00003697          	auipc	a3,0x3
80000a68:	0c868693          	addi	a3,a3,200 # 80003b2c <__func__.0>
80000a6c:	00900613          	li	a2,9
80000a70:	00003597          	auipc	a1,0x3
80000a74:	fe058593          	addi	a1,a1,-32 # 80003a50 <__func__.2+0x10>
80000a78:	00003517          	auipc	a0,0x3
80000a7c:	00450513          	addi	a0,a0,4 # 80003a7c <__func__.2+0x3c>
80000a80:	1d9010ef          	jal	ra,80002458 <printf>
80000a84:	00040513          	mv	a0,s0
80000a88:	00812403          	lw	s0,8(sp)
80000a8c:	00c12083          	lw	ra,12(sp)
80000a90:	01010113          	addi	sp,sp,16
80000a94:	e11ff06f          	j	800008a4 <schedule>
80000a98:	00003697          	auipc	a3,0x3
80000a9c:	09468693          	addi	a3,a3,148 # 80003b2c <__func__.0>
80000aa0:	00c00613          	li	a2,12
80000aa4:	00003597          	auipc	a1,0x3
80000aa8:	fac58593          	addi	a1,a1,-84 # 80003a50 <__func__.2+0x10>
80000aac:	00003517          	auipc	a0,0x3
80000ab0:	ff450513          	addi	a0,a0,-12 # 80003aa0 <__func__.2+0x60>
80000ab4:	1a5010ef          	jal	ra,80002458 <printf>
80000ab8:	00100513          	li	a0,1
80000abc:	704000ef          	jal	ra,800011c0 <halt>

80000ac0 <init_irq>:
80000ac0:	ff010113          	addi	sp,sp,-16
80000ac4:	00003697          	auipc	a3,0x3
80000ac8:	07468693          	addi	a3,a3,116 # 80003b38 <__func__.1>
80000acc:	01200613          	li	a2,18
80000ad0:	00003597          	auipc	a1,0x3
80000ad4:	f8058593          	addi	a1,a1,-128 # 80003a50 <__func__.2+0x10>
80000ad8:	00003517          	auipc	a0,0x3
80000adc:	01050513          	addi	a0,a0,16 # 80003ae8 <__func__.2+0xa8>
80000ae0:	00112623          	sw	ra,12(sp)
80000ae4:	175010ef          	jal	ra,80002458 <printf>
80000ae8:	00c12083          	lw	ra,12(sp)
80000aec:	00000517          	auipc	a0,0x0
80000af0:	f2450513          	addi	a0,a0,-220 # 80000a10 <do_event>
80000af4:	01010113          	addi	sp,sp,16
80000af8:	3710006f          	j	80001668 <cte_init>

80000afc <loader>:
80000afc:	f7010113          	addi	sp,sp,-144
80000b00:	00058793          	mv	a5,a1
80000b04:	07712623          	sw	s7,108(sp)
80000b08:	00000613          	li	a2,0
80000b0c:	00000593          	li	a1,0
80000b10:	00050b93          	mv	s7,a0
80000b14:	00078513          	mv	a0,a5
80000b18:	08112623          	sw	ra,140(sp)
80000b1c:	09212023          	sw	s2,128(sp)
80000b20:	08812423          	sw	s0,136(sp)
80000b24:	08912223          	sw	s1,132(sp)
80000b28:	07312e23          	sw	s3,124(sp)
80000b2c:	07412c23          	sw	s4,120(sp)
80000b30:	07512a23          	sw	s5,116(sp)
80000b34:	07612823          	sw	s6,112(sp)
80000b38:	07812423          	sw	s8,104(sp)
80000b3c:	07912223          	sw	s9,100(sp)
80000b40:	07a12023          	sw	s10,96(sp)
80000b44:	a0dff0ef          	jal	ra,80000550 <fs_open>
80000b48:	03400613          	li	a2,52
80000b4c:	02c10593          	addi	a1,sp,44
80000b50:	00050913          	mv	s2,a0
80000b54:	aadff0ef          	jal	ra,80000600 <fs_read>
80000b58:	02c12703          	lw	a4,44(sp)
80000b5c:	464c47b7          	lui	a5,0x464c4
80000b60:	57f78793          	addi	a5,a5,1407 # 464c457f <_entry_offset+0x464c457f>
80000b64:	14f71663          	bne	a4,a5,80000cb0 <loader+0x1b4>
80000b68:	05815783          	lhu	a5,88(sp)
80000b6c:	00000413          	li	s0,0
80000b70:	04078c63          	beqz	a5,80000bc8 <loader+0xcc>
80000b74:	00001a37          	lui	s4,0x1
80000b78:	00100993          	li	s3,1
80000b7c:	fffffc37          	lui	s8,0xfffff
80000b80:	fffa0a93          	addi	s5,s4,-1 # fff <_entry_offset+0xfff>
80000b84:	004b8b13          	addi	s6,s7,4
80000b88:	05615783          	lhu	a5,86(sp)
80000b8c:	04812583          	lw	a1,72(sp)
80000b90:	00000613          	li	a2,0
80000b94:	028787b3          	mul	a5,a5,s0
80000b98:	00090513          	mv	a0,s2
80000b9c:	00b785b3          	add	a1,a5,a1
80000ba0:	8e5ff0ef          	jal	ra,80000484 <fs_lseek>
80000ba4:	05615603          	lhu	a2,86(sp)
80000ba8:	00c10593          	addi	a1,sp,12
80000bac:	00090513          	mv	a0,s2
80000bb0:	a51ff0ef          	jal	ra,80000600 <fs_read>
80000bb4:	00c12783          	lw	a5,12(sp)
80000bb8:	05378a63          	beq	a5,s3,80000c0c <loader+0x110>
80000bbc:	05815783          	lhu	a5,88(sp)
80000bc0:	00140413          	addi	s0,s0,1
80000bc4:	fcf442e3          	blt	s0,a5,80000b88 <loader+0x8c>
80000bc8:	00090513          	mv	a0,s2
80000bcc:	a19ff0ef          	jal	ra,800005e4 <fs_close>
80000bd0:	08c12083          	lw	ra,140(sp)
80000bd4:	08812403          	lw	s0,136(sp)
80000bd8:	04412503          	lw	a0,68(sp)
80000bdc:	08412483          	lw	s1,132(sp)
80000be0:	08012903          	lw	s2,128(sp)
80000be4:	07c12983          	lw	s3,124(sp)
80000be8:	07812a03          	lw	s4,120(sp)
80000bec:	07412a83          	lw	s5,116(sp)
80000bf0:	07012b03          	lw	s6,112(sp)
80000bf4:	06c12b83          	lw	s7,108(sp)
80000bf8:	06812c03          	lw	s8,104(sp)
80000bfc:	06412c83          	lw	s9,100(sp)
80000c00:	06012d03          	lw	s10,96(sp)
80000c04:	09010113          	addi	sp,sp,144
80000c08:	00008067          	ret
80000c0c:	01012583          	lw	a1,16(sp)
80000c10:	00000613          	li	a2,0
80000c14:	00090513          	mv	a0,s2
80000c18:	01412c83          	lw	s9,20(sp)
80000c1c:	869ff0ef          	jal	ra,80000484 <fs_lseek>
80000c20:	01412503          	lw	a0,20(sp)
80000c24:	02012783          	lw	a5,32(sp)
80000c28:	019c7cb3          	and	s9,s8,s9
80000c2c:	00000d13          	li	s10,0
80000c30:	00f50733          	add	a4,a0,a5
80000c34:	05976c63          	bltu	a4,s9,80000c8c <loader+0x190>
80000c38:	00100513          	li	a0,1
80000c3c:	e84ff0ef          	jal	ra,800002c0 <new_page>
80000c40:	000c8593          	mv	a1,s9
80000c44:	00050613          	mv	a2,a0
80000c48:	00050493          	mv	s1,a0
80000c4c:	00700693          	li	a3,7
80000c50:	000b0513          	mv	a0,s6
80000c54:	64d000ef          	jal	ra,80001aa0 <map>
80000c58:	01412583          	lw	a1,20(sp)
80000c5c:	00001637          	lui	a2,0x1
80000c60:	00090513          	mv	a0,s2
80000c64:	0155f5b3          	and	a1,a1,s5
80000c68:	00b485b3          	add	a1,s1,a1
80000c6c:	995ff0ef          	jal	ra,80000600 <fs_read>
80000c70:	014c8cb3          	add	s9,s9,s4
80000c74:	000d1463          	bnez	s10,80000c7c <loader+0x180>
80000c78:	00048d13          	mv	s10,s1
80000c7c:	01412503          	lw	a0,20(sp)
80000c80:	02012783          	lw	a5,32(sp)
80000c84:	00f50733          	add	a4,a0,a5
80000c88:	fb9778e3          	bgeu	a4,s9,80000c38 <loader+0x13c>
80000c8c:	01c12603          	lw	a2,28(sp)
80000c90:	01557533          	and	a0,a0,s5
80000c94:	00000593          	li	a1,0
80000c98:	01a60d33          	add	s10,a2,s10
80000c9c:	00ad0533          	add	a0,s10,a0
80000ca0:	40c78633          	sub	a2,a5,a2
80000ca4:	16d010ef          	jal	ra,80002610 <memset>
80000ca8:	019baa23          	sw	s9,20(s7)
80000cac:	f11ff06f          	j	80000bbc <loader+0xc0>
80000cb0:	00003717          	auipc	a4,0x3
80000cb4:	e9470713          	addi	a4,a4,-364 # 80003b44 <__func__.1+0xc>
80000cb8:	00003697          	auipc	a3,0x3
80000cbc:	18068693          	addi	a3,a3,384 # 80003e38 <__func__.1>
80000cc0:	03900613          	li	a2,57
80000cc4:	00003597          	auipc	a1,0x3
80000cc8:	ea858593          	addi	a1,a1,-344 # 80003b6c <__func__.1+0x34>
80000ccc:	00003517          	auipc	a0,0x3
80000cd0:	cc450513          	addi	a0,a0,-828 # 80003990 <__func__.2+0x5c>
80000cd4:	784010ef          	jal	ra,80002458 <printf>
80000cd8:	00100513          	li	a0,1
80000cdc:	4e4000ef          	jal	ra,800011c0 <halt>

80000ce0 <context_kload>:
80000ce0:	00060693          	mv	a3,a2
80000ce4:	00058613          	mv	a2,a1
80000ce8:	000205b7          	lui	a1,0x20
80000cec:	fe010113          	addi	sp,sp,-32
80000cf0:	00b505b3          	add	a1,a0,a1
80000cf4:	00812c23          	sw	s0,24(sp)
80000cf8:	00112e23          	sw	ra,28(sp)
80000cfc:	00050413          	mv	s0,a0
80000d00:	189000ef          	jal	ra,80001688 <kcontext>
80000d04:	01c12083          	lw	ra,28(sp)
80000d08:	00a42023          	sw	a0,0(s0)
80000d0c:	01812403          	lw	s0,24(sp)
80000d10:	02010113          	addi	sp,sp,32
80000d14:	00008067          	ret

80000d18 <context_uload>:
80000d18:	f8010113          	addi	sp,sp,-128
80000d1c:	07212823          	sw	s2,112(sp)
80000d20:	00050913          	mv	s2,a0
80000d24:	00800513          	li	a0,8
80000d28:	06112e23          	sw	ra,124(sp)
80000d2c:	06912a23          	sw	s1,116(sp)
80000d30:	07312623          	sw	s3,108(sp)
80000d34:	07412423          	sw	s4,104(sp)
80000d38:	07512223          	sw	s5,100(sp)
80000d3c:	07612023          	sw	s6,96(sp)
80000d40:	05712e23          	sw	s7,92(sp)
80000d44:	05812c23          	sw	s8,88(sp)
80000d48:	00058a93          	mv	s5,a1
80000d4c:	00060993          	mv	s3,a2
80000d50:	00068b93          	mv	s7,a3
80000d54:	06812c23          	sw	s0,120(sp)
80000d58:	05912a23          	sw	s9,84(sp)
80000d5c:	00490a13          	addi	s4,s2,4
80000d60:	d60ff0ef          	jal	ra,800002c0 <new_page>
80000d64:	00050b13          	mv	s6,a0
80000d68:	000084b7          	lui	s1,0x8
80000d6c:	000a0513          	mv	a0,s4
80000d70:	2dd000ef          	jal	ra,8000184c <protect>
80000d74:	009b0b33          	add	s6,s6,s1
80000d78:	fffffc37          	lui	s8,0xfffff
80000d7c:	00c92583          	lw	a1,12(s2)
80000d80:	409b0633          	sub	a2,s6,s1
80000d84:	00000693          	li	a3,0
80000d88:	409585b3          	sub	a1,a1,s1
80000d8c:	000a0513          	mv	a0,s4
80000d90:	018484b3          	add	s1,s1,s8
80000d94:	000b0413          	mv	s0,s6
80000d98:	509000ef          	jal	ra,80001aa0 <map>
80000d9c:	fe0490e3          	bnez	s1,80000d7c <context_uload+0x64>
80000da0:	12098c63          	beqz	s3,80000ed8 <context_uload+0x1c0>
80000da4:	120b8a63          	beqz	s7,80000ed8 <context_uload+0x1c0>
80000da8:	000ba503          	lw	a0,0(s7)
80000dac:	18050e63          	beqz	a0,80000f48 <context_uload+0x230>
80000db0:	01010b13          	addi	s6,sp,16
80000db4:	000b0493          	mv	s1,s6
80000db8:	00000c13          	li	s8,0
80000dbc:	0084a023          	sw	s0,0(s1) # 8000 <_entry_offset+0x8000>
80000dc0:	7d8010ef          	jal	ra,80002598 <strlen>
80000dc4:	000bac83          	lw	s9,0(s7)
80000dc8:	40a40533          	sub	a0,s0,a0
80000dcc:	fff50413          	addi	s0,a0,-1
80000dd0:	000c8513          	mv	a0,s9
80000dd4:	7c4010ef          	jal	ra,80002598 <strlen>
80000dd8:	00150613          	addi	a2,a0,1
80000ddc:	000c8593          	mv	a1,s9
80000de0:	00040513          	mv	a0,s0
80000de4:	04d010ef          	jal	ra,80002630 <memcpy>
80000de8:	004ba503          	lw	a0,4(s7)
80000dec:	004b8b93          	addi	s7,s7,4
80000df0:	000c0793          	mv	a5,s8
80000df4:	00448493          	addi	s1,s1,4
80000df8:	001c0c13          	addi	s8,s8,1 # fffff001 <_end+0x7deb7001>
80000dfc:	fc0510e3          	bnez	a0,80000dbc <context_uload+0xa4>
80000e00:	00278493          	addi	s1,a5,2
80000e04:	00249493          	slli	s1,s1,0x2
80000e08:	002c1c13          	slli	s8,s8,0x2
80000e0c:	050c0793          	addi	a5,s8,80
80000e10:	0009a503          	lw	a0,0(s3)
80000e14:	00278c33          	add	s8,a5,sp
80000e18:	fc0c2023          	sw	zero,-64(s8)
80000e1c:	00012623          	sw	zero,12(sp)
80000e20:	00000793          	li	a5,0
80000e24:	06050063          	beqz	a0,80000e84 <context_uload+0x16c>
80000e28:	05078793          	addi	a5,a5,80
80000e2c:	002787b3          	add	a5,a5,sp
80000e30:	fe87a023          	sw	s0,-32(a5)
80000e34:	764010ef          	jal	ra,80002598 <strlen>
80000e38:	00c12783          	lw	a5,12(sp)
80000e3c:	40a40533          	sub	a0,s0,a0
80000e40:	fff50413          	addi	s0,a0,-1
80000e44:	00279793          	slli	a5,a5,0x2
80000e48:	00f987b3          	add	a5,s3,a5
80000e4c:	0007ab83          	lw	s7,0(a5)
80000e50:	000b8513          	mv	a0,s7
80000e54:	744010ef          	jal	ra,80002598 <strlen>
80000e58:	00150613          	addi	a2,a0,1
80000e5c:	000b8593          	mv	a1,s7
80000e60:	00040513          	mv	a0,s0
80000e64:	7cc010ef          	jal	ra,80002630 <memcpy>
80000e68:	00c12703          	lw	a4,12(sp)
80000e6c:	00170713          	addi	a4,a4,1
80000e70:	00271793          	slli	a5,a4,0x2
80000e74:	00f986b3          	add	a3,s3,a5
80000e78:	0006a503          	lw	a0,0(a3)
80000e7c:	00e12623          	sw	a4,12(sp)
80000e80:	fa0514e3          	bnez	a0,80000e28 <context_uload+0x110>
80000e84:	ffc47413          	andi	s0,s0,-4
80000e88:	05078793          	addi	a5,a5,80
80000e8c:	002787b3          	add	a5,a5,sp
80000e90:	40940433          	sub	s0,s0,s1
80000e94:	00048613          	mv	a2,s1
80000e98:	000b0593          	mv	a1,s6
80000e9c:	00040513          	mv	a0,s0
80000ea0:	fe07a023          	sw	zero,-32(a5)
80000ea4:	78c010ef          	jal	ra,80002630 <memcpy>
80000ea8:	00c12603          	lw	a2,12(sp)
80000eac:	03010593          	addi	a1,sp,48
80000eb0:	00160613          	addi	a2,a2,1 # 1001 <_entry_offset+0x1001>
80000eb4:	00261613          	slli	a2,a2,0x2
80000eb8:	40c40433          	sub	s0,s0,a2
80000ebc:	00040513          	mv	a0,s0
80000ec0:	770010ef          	jal	ra,80002630 <memcpy>
80000ec4:	ffc40413          	addi	s0,s0,-4
80000ec8:	00400613          	li	a2,4
80000ecc:	00c10593          	addi	a1,sp,12
80000ed0:	00040513          	mv	a0,s0
80000ed4:	75c010ef          	jal	ra,80002630 <memcpy>
80000ed8:	000087b7          	lui	a5,0x8
80000edc:	00f907b3          	add	a5,s2,a5
80000ee0:	02f12a23          	sw	a5,52(sp)
80000ee4:	060a8a63          	beqz	s5,80000f58 <context_uload+0x240>
80000ee8:	000a8593          	mv	a1,s5
80000eec:	00090513          	mv	a0,s2
80000ef0:	c0dff0ef          	jal	ra,80000afc <loader>
80000ef4:	03412603          	lw	a2,52(sp)
80000ef8:	00050693          	mv	a3,a0
80000efc:	00090593          	mv	a1,s2
80000f00:	000a0513          	mv	a0,s4
80000f04:	03212823          	sw	s2,48(sp)
80000f08:	3b5000ef          	jal	ra,80001abc <ucontext>
80000f0c:	00a92023          	sw	a0,0(s2)
80000f10:	07c12083          	lw	ra,124(sp)
80000f14:	02852423          	sw	s0,40(a0)
80000f18:	07812403          	lw	s0,120(sp)
80000f1c:	07412483          	lw	s1,116(sp)
80000f20:	07012903          	lw	s2,112(sp)
80000f24:	06c12983          	lw	s3,108(sp)
80000f28:	06812a03          	lw	s4,104(sp)
80000f2c:	06412a83          	lw	s5,100(sp)
80000f30:	06012b03          	lw	s6,96(sp)
80000f34:	05c12b83          	lw	s7,92(sp)
80000f38:	05812c03          	lw	s8,88(sp)
80000f3c:	05412c83          	lw	s9,84(sp)
80000f40:	08010113          	addi	sp,sp,128
80000f44:	00008067          	ret
80000f48:	00400493          	li	s1,4
80000f4c:	00000c13          	li	s8,0
80000f50:	01010b13          	addi	s6,sp,16
80000f54:	eb5ff06f          	j	80000e08 <context_uload+0xf0>
80000f58:	00003717          	auipc	a4,0x3
80000f5c:	c4070713          	addi	a4,a4,-960 # 80003b98 <__func__.1+0x60>
80000f60:	00003697          	auipc	a3,0x3
80000f64:	c4c68693          	addi	a3,a3,-948 # 80003bac <__func__.0>
80000f68:	09700613          	li	a2,151
80000f6c:	00003597          	auipc	a1,0x3
80000f70:	c0058593          	addi	a1,a1,-1024 # 80003b6c <__func__.1+0x34>
80000f74:	00003517          	auipc	a0,0x3
80000f78:	a1c50513          	addi	a0,a0,-1508 # 80003990 <__func__.2+0x5c>
80000f7c:	4dc010ef          	jal	ra,80002458 <printf>
80000f80:	00100513          	li	a0,1
80000f84:	23c000ef          	jal	ra,800011c0 <halt>

80000f88 <serial_write>:
80000f88:	ff010113          	addi	sp,sp,-16
80000f8c:	01212023          	sw	s2,0(sp)
80000f90:	00112623          	sw	ra,12(sp)
80000f94:	00812423          	sw	s0,8(sp)
80000f98:	00912223          	sw	s1,4(sp)
80000f9c:	00060913          	mv	s2,a2
80000fa0:	00060e63          	beqz	a2,80000fbc <serial_write+0x34>
80000fa4:	00050413          	mv	s0,a0
80000fa8:	00c504b3          	add	s1,a0,a2
80000fac:	00044503          	lbu	a0,0(s0)
80000fb0:	00140413          	addi	s0,s0,1
80000fb4:	200000ef          	jal	ra,800011b4 <putch>
80000fb8:	fe941ae3          	bne	s0,s1,80000fac <serial_write+0x24>
80000fbc:	00c12083          	lw	ra,12(sp)
80000fc0:	00812403          	lw	s0,8(sp)
80000fc4:	00412483          	lw	s1,4(sp)
80000fc8:	00090513          	mv	a0,s2
80000fcc:	00012903          	lw	s2,0(sp)
80000fd0:	01010113          	addi	sp,sp,16
80000fd4:	00008067          	ret

80000fd8 <events_read>:
80000fd8:	fe010113          	addi	sp,sp,-32
80000fdc:	00912a23          	sw	s1,20(sp)
80000fe0:	01212823          	sw	s2,16(sp)
80000fe4:	00058493          	mv	s1,a1
80000fe8:	00050913          	mv	s2,a0
80000fec:	00810593          	addi	a1,sp,8
80000ff0:	00800513          	li	a0,8
80000ff4:	00812c23          	sw	s0,24(sp)
80000ff8:	00112e23          	sw	ra,28(sp)
80000ffc:	00060413          	mv	s0,a2
80001000:	2dc000ef          	jal	ra,800012dc <ioe_read>
80001004:	00c12703          	lw	a4,12(sp)
80001008:	00814783          	lbu	a5,8(sp)
8000100c:	04070263          	beqz	a4,80001050 <events_read+0x78>
80001010:	00003697          	auipc	a3,0x3
80001014:	bac68693          	addi	a3,a3,-1108 # 80003bbc <__func__.0+0x10>
80001018:	04079c63          	bnez	a5,80001070 <events_read+0x98>
8000101c:	40940433          	sub	s0,s0,s1
80001020:	00990533          	add	a0,s2,s1
80001024:	00040593          	mv	a1,s0
80001028:	00003617          	auipc	a2,0x3
8000102c:	b9c60613          	addi	a2,a2,-1124 # 80003bc4 <__func__.0+0x18>
80001030:	3f0010ef          	jal	ra,80002420 <snprintf>
80001034:	01c12083          	lw	ra,28(sp)
80001038:	00040513          	mv	a0,s0
8000103c:	01812403          	lw	s0,24(sp)
80001040:	01412483          	lw	s1,20(sp)
80001044:	01012903          	lw	s2,16(sp)
80001048:	02010113          	addi	sp,sp,32
8000104c:	00008067          	ret
80001050:	00000413          	li	s0,0
80001054:	01c12083          	lw	ra,28(sp)
80001058:	00040513          	mv	a0,s0
8000105c:	01812403          	lw	s0,24(sp)
80001060:	01412483          	lw	s1,20(sp)
80001064:	01012903          	lw	s2,16(sp)
80001068:	02010113          	addi	sp,sp,32
8000106c:	00008067          	ret
80001070:	00003697          	auipc	a3,0x3
80001074:	b5068693          	addi	a3,a3,-1200 # 80003bc0 <__func__.0+0x14>
80001078:	fa5ff06f          	j	8000101c <events_read+0x44>

8000107c <dispinfo_read>:
8000107c:	fe010113          	addi	sp,sp,-32
80001080:	00812c23          	sw	s0,24(sp)
80001084:	00010593          	mv	a1,sp
80001088:	00050413          	mv	s0,a0
8000108c:	00900513          	li	a0,9
80001090:	00112e23          	sw	ra,28(sp)
80001094:	248000ef          	jal	ra,800012dc <ioe_read>
80001098:	00812683          	lw	a3,8(sp)
8000109c:	00412603          	lw	a2,4(sp)
800010a0:	00040513          	mv	a0,s0
800010a4:	00003597          	auipc	a1,0x3
800010a8:	b2858593          	addi	a1,a1,-1240 # 80003bcc <__func__.0+0x20>
800010ac:	4a4010ef          	jal	ra,80002550 <sprintf>
800010b0:	00040513          	mv	a0,s0
800010b4:	01812403          	lw	s0,24(sp)
800010b8:	01c12083          	lw	ra,28(sp)
800010bc:	02010113          	addi	sp,sp,32
800010c0:	4d80106f          	j	80002598 <strlen>

800010c4 <fb_write>:
800010c4:	fd010113          	addi	sp,sp,-48
800010c8:	02812423          	sw	s0,40(sp)
800010cc:	03212023          	sw	s2,32(sp)
800010d0:	00058413          	mv	s0,a1
800010d4:	00050913          	mv	s2,a0
800010d8:	00810593          	addi	a1,sp,8
800010dc:	00900513          	li	a0,9
800010e0:	02112623          	sw	ra,44(sp)
800010e4:	02912223          	sw	s1,36(sp)
800010e8:	00060493          	mv	s1,a2
800010ec:	1f0000ef          	jal	ra,800012dc <ioe_read>
800010f0:	00c12603          	lw	a2,12(sp)
800010f4:	01012583          	lw	a1,16(sp)
800010f8:	01049813          	slli	a6,s1,0x10
800010fc:	02c47733          	remu	a4,s0,a2
80001100:	01f65693          	srli	a3,a2,0x1f
80001104:	01f5d793          	srli	a5,a1,0x1f
80001108:	00c686b3          	add	a3,a3,a2
8000110c:	00b787b3          	add	a5,a5,a1
80001110:	01085813          	srli	a6,a6,0x10
80001114:	4016d693          	srai	a3,a3,0x1
80001118:	4017d793          	srai	a5,a5,0x1
8000111c:	00185893          	srli	a7,a6,0x1
80001120:	0114d313          	srli	t1,s1,0x11
80001124:	01012c23          	sw	a6,24(sp)
80001128:	00b00513          	li	a0,11
8000112c:	0104d493          	srli	s1,s1,0x10
80001130:	00810593          	addi	a1,sp,8
80001134:	00100813          	li	a6,1
80001138:	01212823          	sw	s2,16(sp)
8000113c:	00912a23          	sw	s1,20(sp)
80001140:	01010e23          	sb	a6,28(sp)
80001144:	02c45433          	divu	s0,s0,a2
80001148:	00d70733          	add	a4,a4,a3
8000114c:	40670733          	sub	a4,a4,t1
80001150:	00e12423          	sw	a4,8(sp)
80001154:	00f40433          	add	s0,s0,a5
80001158:	41140433          	sub	s0,s0,a7
8000115c:	00812623          	sw	s0,12(sp)
80001160:	198000ef          	jal	ra,800012f8 <ioe_write>
80001164:	02c12083          	lw	ra,44(sp)
80001168:	02812403          	lw	s0,40(sp)
8000116c:	02412483          	lw	s1,36(sp)
80001170:	02012903          	lw	s2,32(sp)
80001174:	00000513          	li	a0,0
80001178:	03010113          	addi	sp,sp,48
8000117c:	00008067          	ret

80001180 <init_device>:
80001180:	ff010113          	addi	sp,sp,-16
80001184:	00003697          	auipc	a3,0x3
80001188:	ab868693          	addi	a3,a3,-1352 # 80003c3c <__func__.0>
8000118c:	05600613          	li	a2,86
80001190:	00003597          	auipc	a1,0x3
80001194:	a5058593          	addi	a1,a1,-1456 # 80003be0 <__func__.0+0x34>
80001198:	00003517          	auipc	a0,0x3
8000119c:	a7450513          	addi	a0,a0,-1420 # 80003c0c <__func__.0+0x60>
800011a0:	00112623          	sw	ra,12(sp)
800011a4:	2b4010ef          	jal	ra,80002458 <printf>
800011a8:	00c12083          	lw	ra,12(sp)
800011ac:	01010113          	addi	sp,sp,16
800011b0:	0d00006f          	j	80001280 <ioe_init>

800011b4 <putch>:
800011b4:	a00007b7          	lui	a5,0xa0000
800011b8:	3ea78c23          	sb	a0,1016(a5) # a00003f8 <_end+0x1deb83f8>
800011bc:	00008067          	ret

800011c0 <halt>:
800011c0:	00050513          	mv	a0,a0
800011c4:	00100073          	ebreak
800011c8:	0000006f          	j	800011c8 <halt+0x8>

800011cc <_trm_init>:
800011cc:	ff010113          	addi	sp,sp,-16
800011d0:	00003517          	auipc	a0,0x3
800011d4:	c7050513          	addi	a0,a0,-912 # 80003e40 <mainargs>
800011d8:	00112623          	sw	ra,12(sp)
800011dc:	f8dfe0ef          	jal	ra,80000168 <main>
800011e0:	00050513          	mv	a0,a0
800011e4:	00100073          	ebreak
800011e8:	0000006f          	j	800011e8 <_trm_init+0x1c>

800011ec <__am_timer_config>:
800011ec:	00100793          	li	a5,1
800011f0:	00f50023          	sb	a5,0(a0)
800011f4:	00f500a3          	sb	a5,1(a0)
800011f8:	00008067          	ret

800011fc <__am_input_config>:
800011fc:	00100793          	li	a5,1
80001200:	00f50023          	sb	a5,0(a0)
80001204:	00008067          	ret

80001208 <__am_uart_config>:
80001208:	00050023          	sb	zero,0(a0)
8000120c:	00008067          	ret

80001210 <__am_net_config>:
80001210:	00050023          	sb	zero,0(a0)
80001214:	00008067          	ret

80001218 <fail>:
80001218:	ff010113          	addi	sp,sp,-16
8000121c:	00812423          	sw	s0,8(sp)
80001220:	00112623          	sw	ra,12(sp)
80001224:	00003417          	auipc	s0,0x3
80001228:	a2440413          	addi	s0,s0,-1500 # 80003c48 <__func__.0+0xc>
8000122c:	04100513          	li	a0,65
80001230:	00140413          	addi	s0,s0,1
80001234:	f81ff0ef          	jal	ra,800011b4 <putch>
80001238:	00044503          	lbu	a0,0(s0)
8000123c:	fe051ae3          	bnez	a0,80001230 <fail+0x18>
80001240:	00003417          	auipc	s0,0x3
80001244:	a1440413          	addi	s0,s0,-1516 # 80003c54 <__func__.0+0x18>
80001248:	06100513          	li	a0,97
8000124c:	00140413          	addi	s0,s0,1
80001250:	f65ff0ef          	jal	ra,800011b4 <putch>
80001254:	00044503          	lbu	a0,0(s0)
80001258:	fe051ae3          	bnez	a0,8000124c <fail+0x34>
8000125c:	00003417          	auipc	s0,0x3
80001260:	a1440413          	addi	s0,s0,-1516 # 80003c70 <__func__.0+0x34>
80001264:	02000513          	li	a0,32
80001268:	00140413          	addi	s0,s0,1
8000126c:	f49ff0ef          	jal	ra,800011b4 <putch>
80001270:	00044503          	lbu	a0,0(s0)
80001274:	fe051ae3          	bnez	a0,80001268 <fail+0x50>
80001278:	00100513          	li	a0,1
8000127c:	f45ff0ef          	jal	ra,800011c0 <halt>

80001280 <ioe_init>:
80001280:	ff010113          	addi	sp,sp,-16
80001284:	00112623          	sw	ra,12(sp)
80001288:	02111797          	auipc	a5,0x2111
8000128c:	be478793          	addi	a5,a5,-1052 # 82111e6c <lut>
80001290:	02111697          	auipc	a3,0x2111
80001294:	ddc68693          	addi	a3,a3,-548 # 8211206c <lut+0x200>
80001298:	00000617          	auipc	a2,0x0
8000129c:	f8060613          	addi	a2,a2,-128 # 80001218 <fail>
800012a0:	00c0006f          	j	800012ac <ioe_init+0x2c>
800012a4:	00478793          	addi	a5,a5,4
800012a8:	00d78c63          	beq	a5,a3,800012c0 <ioe_init+0x40>
800012ac:	0007a703          	lw	a4,0(a5)
800012b0:	fe071ae3          	bnez	a4,800012a4 <ioe_init+0x24>
800012b4:	00c7a023          	sw	a2,0(a5)
800012b8:	00478793          	addi	a5,a5,4
800012bc:	fed798e3          	bne	a5,a3,800012ac <ioe_init+0x2c>
800012c0:	0c4000ef          	jal	ra,80001384 <__am_gpu_init>
800012c4:	050000ef          	jal	ra,80001314 <__am_timer_init>
800012c8:	1b4000ef          	jal	ra,8000147c <__am_audio_init>
800012cc:	00c12083          	lw	ra,12(sp)
800012d0:	00100513          	li	a0,1
800012d4:	01010113          	addi	sp,sp,16
800012d8:	00008067          	ret

800012dc <ioe_read>:
800012dc:	00251513          	slli	a0,a0,0x2
800012e0:	02111797          	auipc	a5,0x2111
800012e4:	b8c78793          	addi	a5,a5,-1140 # 82111e6c <lut>
800012e8:	00a787b3          	add	a5,a5,a0
800012ec:	0007a783          	lw	a5,0(a5)
800012f0:	00058513          	mv	a0,a1
800012f4:	00078067          	jr	a5

800012f8 <ioe_write>:
800012f8:	00251513          	slli	a0,a0,0x2
800012fc:	02111797          	auipc	a5,0x2111
80001300:	b7078793          	addi	a5,a5,-1168 # 82111e6c <lut>
80001304:	00a787b3          	add	a5,a5,a0
80001308:	0007a783          	lw	a5,0(a5)
8000130c:	00058513          	mv	a0,a1
80001310:	00078067          	jr	a5

80001314 <__am_timer_init>:
80001314:	a00007b7          	lui	a5,0xa0000
80001318:	0407a423          	sw	zero,72(a5) # a0000048 <_end+0x1deb8048>
8000131c:	0407a623          	sw	zero,76(a5)
80001320:	00008067          	ret

80001324 <__am_timer_uptime>:
80001324:	a00007b7          	lui	a5,0xa0000
80001328:	04c7a703          	lw	a4,76(a5) # a000004c <_end+0x1deb804c>
8000132c:	0487a783          	lw	a5,72(a5)
80001330:	00e52223          	sw	a4,4(a0)
80001334:	00f52023          	sw	a5,0(a0)
80001338:	00008067          	ret

8000133c <__am_timer_rtc>:
8000133c:	76c00793          	li	a5,1900
80001340:	00052a23          	sw	zero,20(a0)
80001344:	00052823          	sw	zero,16(a0)
80001348:	00052623          	sw	zero,12(a0)
8000134c:	00052423          	sw	zero,8(a0)
80001350:	00052223          	sw	zero,4(a0)
80001354:	00f52023          	sw	a5,0(a0)
80001358:	00008067          	ret

8000135c <__am_input_keybrd>:
8000135c:	a00007b7          	lui	a5,0xa0000
80001360:	0607a783          	lw	a5,96(a5) # a0000060 <_end+0x1deb8060>
80001364:	ffff86b7          	lui	a3,0xffff8
80001368:	fff68693          	addi	a3,a3,-1 # ffff7fff <_end+0x7deaffff>
8000136c:	40f7d713          	srai	a4,a5,0xf
80001370:	00177713          	andi	a4,a4,1
80001374:	00d7f7b3          	and	a5,a5,a3
80001378:	00e50023          	sb	a4,0(a0)
8000137c:	00f52223          	sw	a5,4(a0)
80001380:	00008067          	ret

80001384 <__am_gpu_init>:
80001384:	00008067          	ret

80001388 <__am_gpu_config>:
80001388:	a00007b7          	lui	a5,0xa0000
8000138c:	1007a783          	lw	a5,256(a5) # a0000100 <_end+0x1deb8100>
80001390:	00100693          	li	a3,1
80001394:	00d51023          	sh	a3,0(a0)
80001398:	4107d713          	srai	a4,a5,0x10
8000139c:	01079793          	slli	a5,a5,0x10
800013a0:	0107d793          	srli	a5,a5,0x10
800013a4:	00e52223          	sw	a4,4(a0)
800013a8:	00f52423          	sw	a5,8(a0)
800013ac:	00052623          	sw	zero,12(a0)
800013b0:	00008067          	ret

800013b4 <__am_gpu_fbdraw>:
800013b4:	fe010113          	addi	sp,sp,-32
800013b8:	00812c23          	sw	s0,24(sp)
800013bc:	00010593          	mv	a1,sp
800013c0:	00050413          	mv	s0,a0
800013c4:	00900513          	li	a0,9
800013c8:	00112e23          	sw	ra,28(sp)
800013cc:	f11ff0ef          	jal	ra,800012dc <ioe_read>
800013d0:	00412883          	lw	a7,4(sp)
800013d4:	00442783          	lw	a5,4(s0)
800013d8:	00042703          	lw	a4,0(s0)
800013dc:	01042803          	lw	a6,16(s0)
800013e0:	02f887b3          	mul	a5,a7,a5
800013e4:	a1000537          	lui	a0,0xa1000
800013e8:	00842583          	lw	a1,8(s0)
800013ec:	00e787b3          	add	a5,a5,a4
800013f0:	00279793          	slli	a5,a5,0x2
800013f4:	00f50533          	add	a0,a0,a5
800013f8:	05005a63          	blez	a6,8000144c <__am_gpu_fbdraw+0x98>
800013fc:	00c42783          	lw	a5,12(s0)
80001400:	00289893          	slli	a7,a7,0x2
80001404:	00000613          	li	a2,0
80001408:	00050693          	mv	a3,a0
8000140c:	00000713          	li	a4,0
80001410:	02f05863          	blez	a5,80001440 <__am_gpu_fbdraw+0x8c>
80001414:	02c787b3          	mul	a5,a5,a2
80001418:	00468693          	addi	a3,a3,4
8000141c:	00e787b3          	add	a5,a5,a4
80001420:	00279793          	slli	a5,a5,0x2
80001424:	00f587b3          	add	a5,a1,a5
80001428:	0007a783          	lw	a5,0(a5)
8000142c:	00170713          	addi	a4,a4,1
80001430:	fef6ae23          	sw	a5,-4(a3)
80001434:	00c42783          	lw	a5,12(s0)
80001438:	fcf74ee3          	blt	a4,a5,80001414 <__am_gpu_fbdraw+0x60>
8000143c:	01042803          	lw	a6,16(s0)
80001440:	00160613          	addi	a2,a2,1
80001444:	01150533          	add	a0,a0,a7
80001448:	fd0640e3          	blt	a2,a6,80001408 <__am_gpu_fbdraw+0x54>
8000144c:	01444783          	lbu	a5,20(s0)
80001450:	00078863          	beqz	a5,80001460 <__am_gpu_fbdraw+0xac>
80001454:	a00007b7          	lui	a5,0xa0000
80001458:	00100713          	li	a4,1
8000145c:	10e7a223          	sw	a4,260(a5) # a0000104 <_end+0x1deb8104>
80001460:	01c12083          	lw	ra,28(sp)
80001464:	01812403          	lw	s0,24(sp)
80001468:	02010113          	addi	sp,sp,32
8000146c:	00008067          	ret

80001470 <__am_gpu_status>:
80001470:	00100793          	li	a5,1
80001474:	00f50023          	sb	a5,0(a0) # a1000000 <_end+0x1eeb8000>
80001478:	00008067          	ret

8000147c <__am_audio_init>:
8000147c:	00008067          	ret

80001480 <__am_audio_config>:
80001480:	a00007b7          	lui	a5,0xa0000
80001484:	20c7a783          	lw	a5,524(a5) # a000020c <_end+0x1deb820c>
80001488:	00050023          	sb	zero,0(a0)
8000148c:	00f52223          	sw	a5,4(a0)
80001490:	00008067          	ret

80001494 <__am_audio_ctrl>:
80001494:	00052703          	lw	a4,0(a0)
80001498:	a00007b7          	lui	a5,0xa0000
8000149c:	20e7a023          	sw	a4,512(a5) # a0000200 <_end+0x1deb8200>
800014a0:	00852703          	lw	a4,8(a0)
800014a4:	20e7a423          	sw	a4,520(a5)
800014a8:	00452703          	lw	a4,4(a0)
800014ac:	20e7a223          	sw	a4,516(a5)
800014b0:	00100713          	li	a4,1
800014b4:	20e7a823          	sw	a4,528(a5)
800014b8:	00008067          	ret

800014bc <__am_audio_status>:
800014bc:	a00007b7          	lui	a5,0xa0000
800014c0:	2147a783          	lw	a5,532(a5) # a0000214 <_end+0x1deb8214>
800014c4:	00f52023          	sw	a5,0(a0)
800014c8:	00008067          	ret

800014cc <__am_audio_play>:
800014cc:	fe010113          	addi	sp,sp,-32
800014d0:	a00007b7          	lui	a5,0xa0000
800014d4:	20c7a703          	lw	a4,524(a5) # a000020c <_end+0x1deb820c>
800014d8:	00052583          	lw	a1,0(a0)
800014dc:	00812c23          	sw	s0,24(sp)
800014e0:	01412423          	sw	s4,8(sp)
800014e4:	00452403          	lw	s0,4(a0)
800014e8:	2147aa03          	lw	s4,532(a5)
800014ec:	01212823          	sw	s2,16(sp)
800014f0:	00112e23          	sw	ra,28(sp)
800014f4:	00912a23          	sw	s1,20(sp)
800014f8:	01312623          	sw	s3,12(sp)
800014fc:	00050913          	mv	s2,a0
80001500:	40b40433          	sub	s0,s0,a1
80001504:	414707b3          	sub	a5,a4,s4
80001508:	0087c063          	blt	a5,s0,80001508 <__am_audio_play+0x3c>
8000150c:	0213e997          	auipc	s3,0x213e
80001510:	b0c98993          	addi	s3,s3,-1268 # 8213f018 <head>
80001514:	0009a783          	lw	a5,0(s3)
80001518:	a1200537          	lui	a0,0xa1200
8000151c:	008786b3          	add	a3,a5,s0
80001520:	00a78533          	add	a0,a5,a0
80001524:	04e6d263          	bge	a3,a4,80001568 <__am_audio_play+0x9c>
80001528:	00040613          	mv	a2,s0
8000152c:	104010ef          	jal	ra,80002630 <memcpy>
80001530:	0009a903          	lw	s2,0(s3)
80001534:	01240933          	add	s2,s0,s2
80001538:	0129a023          	sw	s2,0(s3)
8000153c:	01440433          	add	s0,s0,s4
80001540:	a00007b7          	lui	a5,0xa0000
80001544:	01c12083          	lw	ra,28(sp)
80001548:	2087aa23          	sw	s0,532(a5) # a0000214 <_end+0x1deb8214>
8000154c:	01812403          	lw	s0,24(sp)
80001550:	01412483          	lw	s1,20(sp)
80001554:	01012903          	lw	s2,16(sp)
80001558:	00c12983          	lw	s3,12(sp)
8000155c:	00812a03          	lw	s4,8(sp)
80001560:	02010113          	addi	sp,sp,32
80001564:	00008067          	ret
80001568:	40f704b3          	sub	s1,a4,a5
8000156c:	00048613          	mv	a2,s1
80001570:	0c0010ef          	jal	ra,80002630 <memcpy>
80001574:	00092583          	lw	a1,0(s2)
80001578:	40940933          	sub	s2,s0,s1
8000157c:	00090613          	mv	a2,s2
80001580:	009585b3          	add	a1,a1,s1
80001584:	a1200537          	lui	a0,0xa1200
80001588:	0a8010ef          	jal	ra,80002630 <memcpy>
8000158c:	fadff06f          	j	80001538 <__am_audio_play+0x6c>

80001590 <__am_disk_config>:
80001590:	00050023          	sb	zero,0(a0) # a1200000 <_end+0x1f0b8000>
80001594:	00008067          	ret

80001598 <__am_disk_status>:
80001598:	00008067          	ret

8000159c <__am_disk_blkio>:
8000159c:	00008067          	ret

800015a0 <__am_irq_handle>:
800015a0:	fd010113          	addi	sp,sp,-48
800015a4:	02812423          	sw	s0,40(sp)
800015a8:	02112623          	sw	ra,44(sp)
800015ac:	00050413          	mv	s0,a0
800015b0:	2f4000ef          	jal	ra,800018a4 <__am_get_cur_as>
800015b4:	0213e617          	auipc	a2,0x213e
800015b8:	a6862603          	lw	a2,-1432(a2) # 8213f01c <user_handler>
800015bc:	06060863          	beqz	a2,8000162c <__am_irq_handle+0x8c>
800015c0:	08042703          	lw	a4,128(s0)
800015c4:	800006b7          	lui	a3,0x80000
800015c8:	00012a23          	sw	zero,20(sp)
800015cc:	00012c23          	sw	zero,24(sp)
800015d0:	00012e23          	sw	zero,28(sp)
800015d4:	00768693          	addi	a3,a3,7 # 80000007 <_end+0xfdeb8007>
800015d8:	00500793          	li	a5,5
800015dc:	02d70063          	beq	a4,a3,800015fc <__am_irq_handle+0x5c>
800015e0:	fff00693          	li	a3,-1
800015e4:	00100793          	li	a5,1
800015e8:	00d70a63          	beq	a4,a3,800015fc <__am_irq_handle+0x5c>
800015ec:	00100693          	li	a3,1
800015f0:	00400793          	li	a5,4
800015f4:	00d71463          	bne	a4,a3,800015fc <__am_irq_handle+0x5c>
800015f8:	00200793          	li	a5,2
800015fc:	00f12023          	sw	a5,0(sp)
80001600:	01412783          	lw	a5,20(sp)
80001604:	00040593          	mv	a1,s0
80001608:	00010513          	mv	a0,sp
8000160c:	00f12223          	sw	a5,4(sp)
80001610:	01812783          	lw	a5,24(sp)
80001614:	00f12423          	sw	a5,8(sp)
80001618:	01c12783          	lw	a5,28(sp)
8000161c:	00f12623          	sw	a5,12(sp)
80001620:	000600e7          	jalr	a2
80001624:	00050413          	mv	s0,a0
80001628:	02050063          	beqz	a0,80001648 <__am_irq_handle+0xa8>
8000162c:	00040513          	mv	a0,s0
80001630:	294000ef          	jal	ra,800018c4 <__am_switch>
80001634:	02c12083          	lw	ra,44(sp)
80001638:	00040513          	mv	a0,s0
8000163c:	02812403          	lw	s0,40(sp)
80001640:	03010113          	addi	sp,sp,48
80001644:	00008067          	ret
80001648:	01800613          	li	a2,24
8000164c:	00002597          	auipc	a1,0x2
80001650:	67458593          	addi	a1,a1,1652 # 80003cc0 <__func__.0+0x84>
80001654:	00002517          	auipc	a0,0x2
80001658:	6ac50513          	addi	a0,a0,1708 # 80003d00 <__func__.0+0xc4>
8000165c:	5fd000ef          	jal	ra,80002458 <printf>
80001660:	00100513          	li	a0,1
80001664:	b5dff0ef          	jal	ra,800011c0 <halt>

80001668 <cte_init>:
80001668:	00050793          	mv	a5,a0
8000166c:	00000717          	auipc	a4,0x0
80001670:	05c70713          	addi	a4,a4,92 # 800016c8 <__am_asm_trap>
80001674:	30571073          	csrw	mtvec,a4
80001678:	00100513          	li	a0,1
8000167c:	0213e717          	auipc	a4,0x213e
80001680:	9af72023          	sw	a5,-1632(a4) # 8213f01c <user_handler>
80001684:	00008067          	ret

80001688 <kcontext>:
80001688:	000027b7          	lui	a5,0x2
8000168c:	88078793          	addi	a5,a5,-1920 # 1880 <_entry_offset+0x1880>
80001690:	ff010113          	addi	sp,sp,-16
80001694:	fec5aa23          	sw	a2,-12(a1)
80001698:	fef5a823          	sw	a5,-16(a1)
8000169c:	f8d5aa23          	sw	a3,-108(a1)
800016a0:	f6b5aa23          	sw	a1,-140(a1)
800016a4:	fe05ac23          	sw	zero,-8(a1)
800016a8:	fe05ae23          	sw	zero,-4(a1)
800016ac:	f6c58513          	addi	a0,a1,-148
800016b0:	01010113          	addi	sp,sp,16
800016b4:	00008067          	ret

800016b8 <yield>:
800016b8:	fff00893          	li	a7,-1
800016bc:	00000073          	ecall
800016c0:	00008067          	ret
800016c4:	0000                	.2byte	0x0
	...

800016c8 <__am_asm_trap>:
800016c8:	34011173          	csrrw	sp,mscratch,sp
800016cc:	00011463          	bnez	sp,800016d4 <maintain_np>
800016d0:	34002173          	csrr	sp,mscratch

800016d4 <maintain_np>:
800016d4:	f6c10113          	addi	sp,sp,-148
800016d8:	07c12823          	sw	t3,112(sp)
800016dc:	07d12a23          	sw	t4,116(sp)
800016e0:	34002e73          	csrr	t3,mscratch
800016e4:	01c12423          	sw	t3,8(sp)
800016e8:	00100e13          	li	t3,1
800016ec:	09c12823          	sw	t3,144(sp)
800016f0:	34002e73          	csrr	t3,mscratch
800016f4:	09410e93          	addi	t4,sp,148
800016f8:	01ce9663          	bne	t4,t3,80001704 <save_context>
800016fc:	00000e13          	li	t3,0
80001700:	09c12823          	sw	t3,144(sp)

80001704 <save_context>:
80001704:	00000e13          	li	t3,0
80001708:	340e1073          	csrw	mscratch,t3
8000170c:	00112223          	sw	ra,4(sp)
80001710:	00312623          	sw	gp,12(sp)
80001714:	00412823          	sw	tp,16(sp)
80001718:	00512a23          	sw	t0,20(sp)
8000171c:	00612c23          	sw	t1,24(sp)
80001720:	00712e23          	sw	t2,28(sp)
80001724:	02812023          	sw	s0,32(sp)
80001728:	02912223          	sw	s1,36(sp)
8000172c:	02a12423          	sw	a0,40(sp)
80001730:	02b12623          	sw	a1,44(sp)
80001734:	02c12823          	sw	a2,48(sp)
80001738:	02d12a23          	sw	a3,52(sp)
8000173c:	02e12c23          	sw	a4,56(sp)
80001740:	02f12e23          	sw	a5,60(sp)
80001744:	05012023          	sw	a6,64(sp)
80001748:	05112223          	sw	a7,68(sp)
8000174c:	05212423          	sw	s2,72(sp)
80001750:	05312623          	sw	s3,76(sp)
80001754:	05412823          	sw	s4,80(sp)
80001758:	05512a23          	sw	s5,84(sp)
8000175c:	05612c23          	sw	s6,88(sp)
80001760:	05712e23          	sw	s7,92(sp)
80001764:	07812023          	sw	s8,96(sp)
80001768:	07912223          	sw	s9,100(sp)
8000176c:	07a12423          	sw	s10,104(sp)
80001770:	07b12623          	sw	s11,108(sp)
80001774:	07e12c23          	sw	t5,120(sp)
80001778:	07f12e23          	sw	t6,124(sp)
8000177c:	342022f3          	csrr	t0,mcause
80001780:	30002373          	csrr	t1,mstatus
80001784:	341023f3          	csrr	t2,mepc
80001788:	08512023          	sw	t0,128(sp)
8000178c:	08612223          	sw	t1,132(sp)
80001790:	08712423          	sw	t2,136(sp)
80001794:	00020537          	lui	a0,0x20
80001798:	00a36333          	or	t1,t1,a0
8000179c:	30031073          	csrw	mstatus,t1
800017a0:	00010513          	mv	a0,sp
800017a4:	dfdff0ef          	jal	ra,800015a0 <__am_irq_handle>
800017a8:	00050113          	mv	sp,a0
800017ac:	09012e03          	lw	t3,144(sp)
800017b0:	000e0663          	beqz	t3,800017bc <restore_context>
800017b4:	09410e93          	addi	t4,sp,148
800017b8:	340e9073          	csrw	mscratch,t4

800017bc <restore_context>:
800017bc:	08412303          	lw	t1,132(sp)
800017c0:	08812383          	lw	t2,136(sp)
800017c4:	30031073          	csrw	mstatus,t1
800017c8:	34139073          	csrw	mepc,t2
800017cc:	07012e03          	lw	t3,112(sp)
800017d0:	07412e83          	lw	t4,116(sp)
800017d4:	00412083          	lw	ra,4(sp)
800017d8:	00c12183          	lw	gp,12(sp)
800017dc:	01012203          	lw	tp,16(sp)
800017e0:	01412283          	lw	t0,20(sp)
800017e4:	01812303          	lw	t1,24(sp)
800017e8:	01c12383          	lw	t2,28(sp)
800017ec:	02012403          	lw	s0,32(sp)
800017f0:	02412483          	lw	s1,36(sp)
800017f4:	02812503          	lw	a0,40(sp)
800017f8:	02c12583          	lw	a1,44(sp)
800017fc:	03012603          	lw	a2,48(sp)
80001800:	03412683          	lw	a3,52(sp)
80001804:	03812703          	lw	a4,56(sp)
80001808:	03c12783          	lw	a5,60(sp)
8000180c:	04012803          	lw	a6,64(sp)
80001810:	04412883          	lw	a7,68(sp)
80001814:	04812903          	lw	s2,72(sp)
80001818:	04c12983          	lw	s3,76(sp)
8000181c:	05012a03          	lw	s4,80(sp)
80001820:	05412a83          	lw	s5,84(sp)
80001824:	05812b03          	lw	s6,88(sp)
80001828:	05c12b83          	lw	s7,92(sp)
8000182c:	06012c03          	lw	s8,96(sp)
80001830:	06412c83          	lw	s9,100(sp)
80001834:	06812d03          	lw	s10,104(sp)
80001838:	06c12d83          	lw	s11,108(sp)
8000183c:	07812f03          	lw	t5,120(sp)
80001840:	07c12f83          	lw	t6,124(sp)
80001844:	00812103          	lw	sp,8(sp)
80001848:	30200073          	mret

8000184c <protect>:
8000184c:	ff010113          	addi	sp,sp,-16
80001850:	00812423          	sw	s0,8(sp)
80001854:	00112623          	sw	ra,12(sp)
80001858:	00050413          	mv	s0,a0
8000185c:	0213d797          	auipc	a5,0x213d
80001860:	7c47a783          	lw	a5,1988(a5) # 8213f020 <pgalloc_usr>
80001864:	00001537          	lui	a0,0x1
80001868:	000780e7          	jalr	a5
8000186c:	400007b7          	lui	a5,0x40000
80001870:	00f42223          	sw	a5,4(s0)
80001874:	800007b7          	lui	a5,0x80000
80001878:	00f42423          	sw	a5,8(s0)
8000187c:	000017b7          	lui	a5,0x1
80001880:	00a42623          	sw	a0,12(s0)
80001884:	00f42023          	sw	a5,0(s0)
80001888:	00812403          	lw	s0,8(sp)
8000188c:	00c12083          	lw	ra,12(sp)
80001890:	0213d597          	auipc	a1,0x213d
80001894:	77c5a583          	lw	a1,1916(a1) # 8213f00c <kas+0xc>
80001898:	00001637          	lui	a2,0x1
8000189c:	01010113          	addi	sp,sp,16
800018a0:	5910006f          	j	80002630 <memcpy>

800018a4 <__am_get_cur_as>:
800018a4:	0213d717          	auipc	a4,0x213d
800018a8:	78072703          	lw	a4,1920(a4) # 8213f024 <vme_enable>
800018ac:	00000793          	li	a5,0
800018b0:	00070663          	beqz	a4,800018bc <__am_get_cur_as+0x18>
800018b4:	180027f3          	csrr	a5,satp
800018b8:	00c79793          	slli	a5,a5,0xc
800018bc:	08f52623          	sw	a5,140(a0) # 108c <_entry_offset+0x108c>
800018c0:	00008067          	ret

800018c4 <__am_switch>:
800018c4:	0213d797          	auipc	a5,0x213d
800018c8:	7607a783          	lw	a5,1888(a5) # 8213f024 <vme_enable>
800018cc:	00078e63          	beqz	a5,800018e8 <__am_switch+0x24>
800018d0:	08c52783          	lw	a5,140(a0)
800018d4:	00078a63          	beqz	a5,800018e8 <__am_switch+0x24>
800018d8:	80000737          	lui	a4,0x80000
800018dc:	00c7d793          	srli	a5,a5,0xc
800018e0:	00e7e7b3          	or	a5,a5,a4
800018e4:	18079073          	csrw	satp,a5
800018e8:	00008067          	ret

800018ec <get_pte>:
800018ec:	fe010113          	addi	sp,sp,-32
800018f0:	00912a23          	sw	s1,20(sp)
800018f4:	00c52483          	lw	s1,12(a0)
800018f8:	00c5e7b3          	or	a5,a1,a2
800018fc:	0165d713          	srli	a4,a1,0x16
80001900:	00c4d493          	srli	s1,s1,0xc
80001904:	00a49493          	slli	s1,s1,0xa
80001908:	00112e23          	sw	ra,28(sp)
8000190c:	00812c23          	sw	s0,24(sp)
80001910:	01212823          	sw	s2,16(sp)
80001914:	01479793          	slli	a5,a5,0x14
80001918:	00e484b3          	add	s1,s1,a4
8000191c:	08079663          	bnez	a5,800019a8 <get_pte+0xbc>
80001920:	00249493          	slli	s1,s1,0x2
80001924:	00058413          	mv	s0,a1
80001928:	0004a583          	lw	a1,0(s1)
8000192c:	00060913          	mv	s2,a2
80001930:	04058463          	beqz	a1,80001978 <get_pte+0x8c>
80001934:	00a5d593          	srli	a1,a1,0xa
80001938:	00c59593          	slli	a1,a1,0xc
8000193c:	00c45413          	srli	s0,s0,0xc
80001940:	3ff47413          	andi	s0,s0,1023
80001944:	00241413          	slli	s0,s0,0x2
80001948:	01c12083          	lw	ra,28(sp)
8000194c:	00b405b3          	add	a1,s0,a1
80001950:	400007b7          	lui	a5,0x40000
80001954:	01812403          	lw	s0,24(sp)
80001958:	00295913          	srli	s2,s2,0x2
8000195c:	c0078793          	addi	a5,a5,-1024 # 3ffffc00 <_entry_offset+0x3ffffc00>
80001960:	00f97933          	and	s2,s2,a5
80001964:	01412483          	lw	s1,20(sp)
80001968:	00f96513          	ori	a0,s2,15
8000196c:	01012903          	lw	s2,16(sp)
80001970:	02010113          	addi	sp,sp,32
80001974:	00008067          	ret
80001978:	0213d797          	auipc	a5,0x213d
8000197c:	6a87a783          	lw	a5,1704(a5) # 8213f020 <pgalloc_usr>
80001980:	00001537          	lui	a0,0x1
80001984:	000780e7          	jalr	a5
80001988:	40000737          	lui	a4,0x40000
8000198c:	00255793          	srli	a5,a0,0x2
80001990:	c0070713          	addi	a4,a4,-1024 # 3ffffc00 <_entry_offset+0x3ffffc00>
80001994:	00e7f7b3          	and	a5,a5,a4
80001998:	0017e793          	ori	a5,a5,1
8000199c:	00050593          	mv	a1,a0
800019a0:	00f4a023          	sw	a5,0(s1)
800019a4:	f99ff06f          	j	8000193c <get_pte+0x50>
800019a8:	05c00613          	li	a2,92
800019ac:	00002597          	auipc	a1,0x2
800019b0:	37058593          	addi	a1,a1,880 # 80003d1c <__func__.0+0xe0>
800019b4:	00002517          	auipc	a0,0x2
800019b8:	34c50513          	addi	a0,a0,844 # 80003d00 <__func__.0+0xc4>
800019bc:	29d000ef          	jal	ra,80002458 <printf>
800019c0:	00100513          	li	a0,1
800019c4:	ffcff0ef          	jal	ra,800011c0 <halt>

800019c8 <vme_init>:
800019c8:	fd010113          	addi	sp,sp,-48
800019cc:	00050793          	mv	a5,a0
800019d0:	02812423          	sw	s0,40(sp)
800019d4:	03212023          	sw	s2,32(sp)
800019d8:	01312e23          	sw	s3,28(sp)
800019dc:	01412c23          	sw	s4,24(sp)
800019e0:	01512a23          	sw	s5,20(sp)
800019e4:	02112623          	sw	ra,44(sp)
800019e8:	02912223          	sw	s1,36(sp)
800019ec:	00001537          	lui	a0,0x1
800019f0:	0213d717          	auipc	a4,0x213d
800019f4:	62f72823          	sw	a5,1584(a4) # 8213f020 <pgalloc_usr>
800019f8:	0213d917          	auipc	s2,0x213d
800019fc:	60890913          	addi	s2,s2,1544 # 8213f000 <kas>
80001a00:	000780e7          	jalr	a5
80001a04:	00a92623          	sw	a0,12(s2)
80001a08:	00002a17          	auipc	s4,0x2
80001a0c:	354a0a13          	addi	s4,s4,852 # 80003d5c <segments>
80001a10:	00002a97          	auipc	s5,0x2
80001a14:	364a8a93          	addi	s5,s5,868 # 80003d74 <segments+0x18>
80001a18:	ffffe417          	auipc	s0,0xffffe
80001a1c:	5e840413          	addi	s0,s0,1512 # 80000000 <_start>
80001a20:	000019b7          	lui	s3,0x1
80001a24:	004a2483          	lw	s1,4(s4)
80001a28:	02947063          	bgeu	s0,s1,80001a48 <vme_init+0x80>
80001a2c:	00040613          	mv	a2,s0
80001a30:	00040593          	mv	a1,s0
80001a34:	00090513          	mv	a0,s2
80001a38:	eb5ff0ef          	jal	ra,800018ec <get_pte>
80001a3c:	00a5a023          	sw	a0,0(a1)
80001a40:	01340433          	add	s0,s0,s3
80001a44:	fe9464e3          	bltu	s0,s1,80001a2c <vme_init+0x64>
80001a48:	008a0a13          	addi	s4,s4,8
80001a4c:	015a0663          	beq	s4,s5,80001a58 <vme_init+0x90>
80001a50:	000a2403          	lw	s0,0(s4)
80001a54:	fd1ff06f          	j	80001a24 <vme_init+0x5c>
80001a58:	00c92783          	lw	a5,12(s2)
80001a5c:	80000737          	lui	a4,0x80000
80001a60:	00c7d793          	srli	a5,a5,0xc
80001a64:	00e7e7b3          	or	a5,a5,a4
80001a68:	18079073          	csrw	satp,a5
80001a6c:	02c12083          	lw	ra,44(sp)
80001a70:	02812403          	lw	s0,40(sp)
80001a74:	00100793          	li	a5,1
80001a78:	0213d717          	auipc	a4,0x213d
80001a7c:	5af72623          	sw	a5,1452(a4) # 8213f024 <vme_enable>
80001a80:	02412483          	lw	s1,36(sp)
80001a84:	02012903          	lw	s2,32(sp)
80001a88:	01c12983          	lw	s3,28(sp)
80001a8c:	01812a03          	lw	s4,24(sp)
80001a90:	01412a83          	lw	s5,20(sp)
80001a94:	00100513          	li	a0,1
80001a98:	03010113          	addi	sp,sp,48
80001a9c:	00008067          	ret

80001aa0 <map>:
80001aa0:	fe010113          	addi	sp,sp,-32
80001aa4:	00112e23          	sw	ra,28(sp)
80001aa8:	e45ff0ef          	jal	ra,800018ec <get_pte>
80001aac:	01c12083          	lw	ra,28(sp)
80001ab0:	00a5a023          	sw	a0,0(a1)
80001ab4:	02010113          	addi	sp,sp,32
80001ab8:	00008067          	ret

80001abc <ucontext>:
80001abc:	00c52703          	lw	a4,12(a0) # 100c <_entry_offset+0x100c>
80001ac0:	000027b7          	lui	a5,0x2
80001ac4:	88078793          	addi	a5,a5,-1920 # 1880 <_entry_offset+0x1880>
80001ac8:	fef62823          	sw	a5,-16(a2) # ff0 <_entry_offset+0xff0>
80001acc:	00100793          	li	a5,1
80001ad0:	ff010113          	addi	sp,sp,-16
80001ad4:	fed62a23          	sw	a3,-12(a2)
80001ad8:	fee62c23          	sw	a4,-8(a2)
80001adc:	fef62e23          	sw	a5,-4(a2)
80001ae0:	f6c60513          	addi	a0,a2,-148
80001ae4:	01010113          	addi	sp,sp,16
80001ae8:	00008067          	ret

80001aec <delt>:
80001aec:	0107ff93          	andi	t6,a5,16
80001af0:	ffe60813          	addi	a6,a2,-2
80001af4:	02200893          	li	a7,34
80001af8:	160f8663          	beqz	t6,80001c64 <delt+0x178>
80001afc:	ffe7f793          	andi	a5,a5,-2
80001b00:	2108ea63          	bltu	a7,a6,80001d14 <delt+0x228>
80001b04:	000f8393          	mv	t2,t6
80001b08:	02000f13          	li	t5,32
80001b0c:	fa010113          	addi	sp,sp,-96
80001b10:	04812e23          	sw	s0,92(sp)
80001b14:	0027f813          	andi	a6,a5,2
80001b18:	0207f293          	andi	t0,a5,32
80001b1c:	16080863          	beqz	a6,80001c8c <delt+0x1a0>
80001b20:	1605ca63          	bltz	a1,80001c94 <delt+0x1a8>
80001b24:	0047f813          	andi	a6,a5,4
80001b28:	1e081063          	bnez	a6,80001d08 <delt+0x21c>
80001b2c:	0087f793          	andi	a5,a5,8
80001b30:	00000413          	li	s0,0
80001b34:	00078663          	beqz	a5,80001b40 <delt+0x54>
80001b38:	fff68693          	addi	a3,a3,-1
80001b3c:	02000413          	li	s0,32
80001b40:	00028c63          	beqz	t0,80001b58 <delt+0x6c>
80001b44:	01000793          	li	a5,16
80001b48:	1ef60263          	beq	a2,a5,80001d2c <delt+0x240>
80001b4c:	ff860793          	addi	a5,a2,-8
80001b50:	0017b793          	seqz	a5,a5
80001b54:	40f686b3          	sub	a3,a3,a5
80001b58:	14059663          	bnez	a1,80001ca4 <delt+0x1b8>
80001b5c:	03000793          	li	a5,48
80001b60:	00f10623          	sb	a5,12(sp)
80001b64:	03000813          	li	a6,48
80001b68:	00100893          	li	a7,1
80001b6c:	00100e13          	li	t3,1
80001b70:	00c10e93          	addi	t4,sp,12
80001b74:	00088313          	mv	t1,a7
80001b78:	00e8d463          	bge	a7,a4,80001b80 <delt+0x94>
80001b7c:	00070313          	mv	t1,a4
80001b80:	406686b3          	sub	a3,a3,t1
80001b84:	02039263          	bnez	t2,80001ba8 <delt+0xbc>
80001b88:	fff68793          	addi	a5,a3,-1
80001b8c:	1ad05c63          	blez	a3,80001d44 <delt+0x258>
80001b90:	00d506b3          	add	a3,a0,a3
80001b94:	02000793          	li	a5,32
80001b98:	00150513          	addi	a0,a0,1
80001b9c:	fef50fa3          	sb	a5,-1(a0)
80001ba0:	fea69ce3          	bne	a3,a0,80001b98 <delt+0xac>
80001ba4:	fff00693          	li	a3,-1
80001ba8:	00040663          	beqz	s0,80001bb4 <delt+0xc8>
80001bac:	00850023          	sb	s0,0(a0)
80001bb0:	00150513          	addi	a0,a0,1
80001bb4:	02028463          	beqz	t0,80001bdc <delt+0xf0>
80001bb8:	00800793          	li	a5,8
80001bbc:	16f60063          	beq	a2,a5,80001d1c <delt+0x230>
80001bc0:	01000793          	li	a5,16
80001bc4:	00f61c63          	bne	a2,a5,80001bdc <delt+0xf0>
80001bc8:	03000793          	li	a5,48
80001bcc:	00f50023          	sb	a5,0(a0)
80001bd0:	07800793          	li	a5,120
80001bd4:	00f500a3          	sb	a5,1(a0)
80001bd8:	00250513          	addi	a0,a0,2
80001bdc:	020f9063          	bnez	t6,80001bfc <delt+0x110>
80001be0:	fff68793          	addi	a5,a3,-1
80001be4:	16d05463          	blez	a3,80001d4c <delt+0x260>
80001be8:	00d506b3          	add	a3,a0,a3
80001bec:	00150513          	addi	a0,a0,1
80001bf0:	ffe50fa3          	sb	t5,-1(a0)
80001bf4:	fea69ce3          	bne	a3,a0,80001bec <delt+0x100>
80001bf8:	fff00693          	li	a3,-1
80001bfc:	411307b3          	sub	a5,t1,a7
80001c00:	00f507b3          	add	a5,a0,a5
80001c04:	03000713          	li	a4,48
80001c08:	1268d663          	bge	a7,t1,80001d34 <delt+0x248>
80001c0c:	00150513          	addi	a0,a0,1
80001c10:	fee50fa3          	sb	a4,-1(a0)
80001c14:	fea79ce3          	bne	a5,a0,80001c0c <delt+0x120>
80001c18:	00078713          	mv	a4,a5
80001c1c:	00be85b3          	add	a1,t4,a1
80001c20:	00c0006f          	j	80001c2c <delt+0x140>
80001c24:	fff5c803          	lbu	a6,-1(a1)
80001c28:	00060593          	mv	a1,a2
80001c2c:	01070023          	sb	a6,0(a4)
80001c30:	fff58613          	addi	a2,a1,-1
80001c34:	00170713          	addi	a4,a4,1
80001c38:	febe96e3          	bne	t4,a1,80001c24 <delt+0x138>
80001c3c:	01c787b3          	add	a5,a5,t3
80001c40:	0ed05e63          	blez	a3,80001d3c <delt+0x250>
80001c44:	00d78533          	add	a0,a5,a3
80001c48:	02000713          	li	a4,32
80001c4c:	00178793          	addi	a5,a5,1
80001c50:	fee78fa3          	sb	a4,-1(a5)
80001c54:	fea79ce3          	bne	a5,a0,80001c4c <delt+0x160>
80001c58:	05c12403          	lw	s0,92(sp)
80001c5c:	06010113          	addi	sp,sp,96
80001c60:	00008067          	ret
80001c64:	0b08e863          	bltu	a7,a6,80001d14 <delt+0x228>
80001c68:	0017f813          	andi	a6,a5,1
80001c6c:	0117f393          	andi	t2,a5,17
80001c70:	0e080263          	beqz	a6,80001d54 <delt+0x268>
80001c74:	fa010113          	addi	sp,sp,-96
80001c78:	04812e23          	sw	s0,92(sp)
80001c7c:	0027f813          	andi	a6,a5,2
80001c80:	03000f13          	li	t5,48
80001c84:	0207f293          	andi	t0,a5,32
80001c88:	e8081ce3          	bnez	a6,80001b20 <delt+0x34>
80001c8c:	00000413          	li	s0,0
80001c90:	eb1ff06f          	j	80001b40 <delt+0x54>
80001c94:	40b005b3          	neg	a1,a1
80001c98:	fff68693          	addi	a3,a3,-1
80001c9c:	02d00413          	li	s0,45
80001ca0:	ea0292e3          	bnez	t0,80001b44 <delt+0x58>
80001ca4:	00058793          	mv	a5,a1
80001ca8:	00000593          	li	a1,0
80001cac:	00158e13          	addi	t3,a1,1
80001cb0:	00c10e93          	addi	t4,sp,12
80001cb4:	00002817          	auipc	a6,0x2
80001cb8:	0c080813          	addi	a6,a6,192 # 80003d74 <segments+0x18>
80001cbc:	01ce8333          	add	t1,t4,t3
80001cc0:	000e0893          	mv	a7,t3
80001cc4:	02c7e663          	bltu	a5,a2,80001cf0 <delt+0x204>
80001cc8:	02c7f8b3          	remu	a7,a5,a2
80001ccc:	000e0593          	mv	a1,t3
80001cd0:	00158e13          	addi	t3,a1,1
80001cd4:	02c7d7b3          	divu	a5,a5,a2
80001cd8:	011808b3          	add	a7,a6,a7
80001cdc:	0008c883          	lbu	a7,0(a7)
80001ce0:	ff130fa3          	sb	a7,-1(t1)
80001ce4:	01ce8333          	add	t1,t4,t3
80001ce8:	000e0893          	mv	a7,t3
80001cec:	fcc7fee3          	bgeu	a5,a2,80001cc8 <delt+0x1dc>
80001cf0:	00f80833          	add	a6,a6,a5
80001cf4:	00084803          	lbu	a6,0(a6)
80001cf8:	05058793          	addi	a5,a1,80
80001cfc:	002787b3          	add	a5,a5,sp
80001d00:	fb078e23          	sb	a6,-68(a5)
80001d04:	e71ff06f          	j	80001b74 <delt+0x88>
80001d08:	fff68693          	addi	a3,a3,-1
80001d0c:	02b00413          	li	s0,43
80001d10:	e31ff06f          	j	80001b40 <delt+0x54>
80001d14:	00000513          	li	a0,0
80001d18:	00008067          	ret
80001d1c:	03000793          	li	a5,48
80001d20:	00f50023          	sb	a5,0(a0)
80001d24:	00150513          	addi	a0,a0,1
80001d28:	eb5ff06f          	j	80001bdc <delt+0xf0>
80001d2c:	ffe68693          	addi	a3,a3,-2
80001d30:	e29ff06f          	j	80001b58 <delt+0x6c>
80001d34:	00050793          	mv	a5,a0
80001d38:	ee1ff06f          	j	80001c18 <delt+0x12c>
80001d3c:	00078513          	mv	a0,a5
80001d40:	f19ff06f          	j	80001c58 <delt+0x16c>
80001d44:	00078693          	mv	a3,a5
80001d48:	e61ff06f          	j	80001ba8 <delt+0xbc>
80001d4c:	00078693          	mv	a3,a5
80001d50:	eadff06f          	j	80001bfc <delt+0x110>
80001d54:	02000f13          	li	t5,32
80001d58:	db5ff06f          	j	80001b0c <delt+0x20>

80001d5c <parse_format>:
80001d5c:	fff00793          	li	a5,-1
80001d60:	00052703          	lw	a4,0(a0)
80001d64:	01000313          	li	t1,16
80001d68:	0005a023          	sw	zero,0(a1)
80001d6c:	00f5a223          	sw	a5,4(a1)
80001d70:	00f5a423          	sw	a5,8(a1)
80001d74:	00f5a623          	sw	a5,12(a1)
80001d78:	00002897          	auipc	a7,0x2
80001d7c:	02488893          	addi	a7,a7,36 # 80003d9c <segments+0x40>
80001d80:	00170813          	addi	a6,a4,1
80001d84:	01052023          	sw	a6,0(a0)
80001d88:	00174683          	lbu	a3,1(a4)
80001d8c:	fe068793          	addi	a5,a3,-32
80001d90:	0ff7f793          	zext.b	a5,a5
80001d94:	00f36c63          	bltu	t1,a5,80001dac <parse_format+0x50>
80001d98:	00279793          	slli	a5,a5,0x2
80001d9c:	011787b3          	add	a5,a5,a7
80001da0:	0007a783          	lw	a5,0(a5)
80001da4:	011787b3          	add	a5,a5,a7
80001da8:	00078067          	jr	a5
80001dac:	fd068793          	addi	a5,a3,-48
80001db0:	0ff7f793          	zext.b	a5,a5
80001db4:	00900893          	li	a7,9
80001db8:	0cf8fe63          	bgeu	a7,a5,80001e94 <parse_format+0x138>
80001dbc:	02a00793          	li	a5,42
80001dc0:	06f68e63          	beq	a3,a5,80001e3c <parse_format+0xe0>
80001dc4:	02e00793          	li	a5,46
80001dc8:	08f68c63          	beq	a3,a5,80001e60 <parse_format+0x104>
80001dcc:	06c00793          	li	a5,108
80001dd0:	04f68a63          	beq	a3,a5,80001e24 <parse_format+0xc8>
80001dd4:	06800793          	li	a5,104
80001dd8:	04f68a63          	beq	a3,a5,80001e2c <parse_format+0xd0>
80001ddc:	00008067          	ret
80001de0:	0005a783          	lw	a5,0(a1)
80001de4:	0017e793          	ori	a5,a5,1
80001de8:	00f5a023          	sw	a5,0(a1)
80001dec:	00080713          	mv	a4,a6
80001df0:	f91ff06f          	j	80001d80 <parse_format+0x24>
80001df4:	0005a783          	lw	a5,0(a1)
80001df8:	0107e793          	ori	a5,a5,16
80001dfc:	fedff06f          	j	80001de8 <parse_format+0x8c>
80001e00:	0005a783          	lw	a5,0(a1)
80001e04:	0047e793          	ori	a5,a5,4
80001e08:	fe1ff06f          	j	80001de8 <parse_format+0x8c>
80001e0c:	0005a783          	lw	a5,0(a1)
80001e10:	0207e793          	ori	a5,a5,32
80001e14:	fd5ff06f          	j	80001de8 <parse_format+0x8c>
80001e18:	0005a783          	lw	a5,0(a1)
80001e1c:	0087e793          	ori	a5,a5,8
80001e20:	fc9ff06f          	j	80001de8 <parse_format+0x8c>
80001e24:	00184783          	lbu	a5,1(a6)
80001e28:	0ad78a63          	beq	a5,a3,80001edc <parse_format+0x180>
80001e2c:	00d5a623          	sw	a3,12(a1)
80001e30:	00180813          	addi	a6,a6,1
80001e34:	01052023          	sw	a6,0(a0)
80001e38:	00008067          	ret
80001e3c:	00062783          	lw	a5,0(a2)
80001e40:	00270813          	addi	a6,a4,2
80001e44:	01052023          	sw	a6,0(a0)
80001e48:	00f5a223          	sw	a5,4(a1)
80001e4c:	00460613          	addi	a2,a2,4
80001e50:	0a07c063          	bltz	a5,80001ef0 <parse_format+0x194>
80001e54:	00274683          	lbu	a3,2(a4)
80001e58:	02e00793          	li	a5,46
80001e5c:	f6f698e3          	bne	a3,a5,80001dcc <parse_format+0x70>
80001e60:	00180893          	addi	a7,a6,1
80001e64:	01152023          	sw	a7,0(a0)
80001e68:	00184703          	lbu	a4,1(a6)
80001e6c:	00900693          	li	a3,9
80001e70:	fd070793          	addi	a5,a4,-48
80001e74:	0ff7f793          	zext.b	a5,a5
80001e78:	0af6fa63          	bgeu	a3,a5,80001f2c <parse_format+0x1d0>
80001e7c:	02a00793          	li	a5,42
80001e80:	08f70663          	beq	a4,a5,80001f0c <parse_format+0x1b0>
80001e84:	0005a423          	sw	zero,8(a1)
80001e88:	0008c683          	lbu	a3,0(a7)
80001e8c:	00088813          	mv	a6,a7
80001e90:	f3dff06f          	j	80001dcc <parse_format+0x70>
80001e94:	00270713          	addi	a4,a4,2
80001e98:	00000893          	li	a7,0
80001e9c:	02f00313          	li	t1,47
80001ea0:	03900e13          	li	t3,57
80001ea4:	00289793          	slli	a5,a7,0x2
80001ea8:	011787b3          	add	a5,a5,a7
80001eac:	00e52023          	sw	a4,0(a0)
80001eb0:	00179793          	slli	a5,a5,0x1
80001eb4:	00d787b3          	add	a5,a5,a3
80001eb8:	00074683          	lbu	a3,0(a4)
80001ebc:	00070813          	mv	a6,a4
80001ec0:	fd078893          	addi	a7,a5,-48
80001ec4:	00170713          	addi	a4,a4,1
80001ec8:	00d35463          	bge	t1,a3,80001ed0 <parse_format+0x174>
80001ecc:	fcde5ce3          	bge	t3,a3,80001ea4 <parse_format+0x148>
80001ed0:	0115a223          	sw	a7,4(a1)
80001ed4:	00084683          	lbu	a3,0(a6)
80001ed8:	eedff06f          	j	80001dc4 <parse_format+0x68>
80001edc:	03100793          	li	a5,49
80001ee0:	00f5a623          	sw	a5,12(a1)
80001ee4:	00280813          	addi	a6,a6,2
80001ee8:	01052023          	sw	a6,0(a0)
80001eec:	00008067          	ret
80001ef0:	0005a683          	lw	a3,0(a1)
80001ef4:	40f007b3          	neg	a5,a5
80001ef8:	00f5a223          	sw	a5,4(a1)
80001efc:	0106e793          	ori	a5,a3,16
80001f00:	00f5a023          	sw	a5,0(a1)
80001f04:	00274683          	lbu	a3,2(a4)
80001f08:	f51ff06f          	j	80001e58 <parse_format+0xfc>
80001f0c:	00062783          	lw	a5,0(a2)
80001f10:	00280893          	addi	a7,a6,2
80001f14:	01152023          	sw	a7,0(a0)
80001f18:	00f5a423          	sw	a5,8(a1)
80001f1c:	f607c4e3          	bltz	a5,80001e84 <parse_format+0x128>
80001f20:	00284683          	lbu	a3,2(a6)
80001f24:	00088813          	mv	a6,a7
80001f28:	ea5ff06f          	j	80001dcc <parse_format+0x70>
80001f2c:	00280693          	addi	a3,a6,2
80001f30:	00000613          	li	a2,0
80001f34:	02f00893          	li	a7,47
80001f38:	03900313          	li	t1,57
80001f3c:	00261793          	slli	a5,a2,0x2
80001f40:	00c787b3          	add	a5,a5,a2
80001f44:	00d52023          	sw	a3,0(a0)
80001f48:	00179793          	slli	a5,a5,0x1
80001f4c:	00e787b3          	add	a5,a5,a4
80001f50:	0006c703          	lbu	a4,0(a3)
80001f54:	00068813          	mv	a6,a3
80001f58:	fd078613          	addi	a2,a5,-48
80001f5c:	00168693          	addi	a3,a3,1
80001f60:	00e8d463          	bge	a7,a4,80001f68 <parse_format+0x20c>
80001f64:	fce35ce3          	bge	t1,a4,80001f3c <parse_format+0x1e0>
80001f68:	00c5a423          	sw	a2,8(a1)
80001f6c:	00084683          	lbu	a3,0(a6)
80001f70:	e5dff06f          	j	80001dcc <parse_format+0x70>

80001f74 <vsnprintf>:
80001f74:	fb010113          	addi	sp,sp,-80
80001f78:	05212023          	sw	s2,64(sp)
80001f7c:	04112623          	sw	ra,76(sp)
80001f80:	04812423          	sw	s0,72(sp)
80001f84:	04912223          	sw	s1,68(sp)
80001f88:	03312e23          	sw	s3,60(sp)
80001f8c:	03412c23          	sw	s4,56(sp)
80001f90:	03512a23          	sw	s5,52(sp)
80001f94:	03612823          	sw	s6,48(sp)
80001f98:	03712623          	sw	s7,44(sp)
80001f9c:	00064783          	lbu	a5,0(a2)
80001fa0:	00c12623          	sw	a2,12(sp)
80001fa4:	00050913          	mv	s2,a0
80001fa8:	44078463          	beqz	a5,800023f0 <vsnprintf+0x47c>
80001fac:	00010ab7          	lui	s5,0x10
80001fb0:	00068b93          	mv	s7,a3
80001fb4:	00050493          	mv	s1,a0
80001fb8:	02500b13          	li	s6,37
80001fbc:	fffa8a93          	addi	s5,s5,-1 # ffff <_entry_offset+0xffff>
80001fc0:	0c000a13          	li	s4,192
80001fc4:	fff58993          	addi	s3,a1,-1
80001fc8:	03678a63          	beq	a5,s6,80001ffc <vsnprintf+0x88>
80001fcc:	41248733          	sub	a4,s1,s2
80001fd0:	11377463          	bgeu	a4,s3,800020d8 <vsnprintf+0x164>
80001fd4:	00c12403          	lw	s0,12(sp)
80001fd8:	00f48023          	sb	a5,0(s1)
80001fdc:	00148493          	addi	s1,s1,1
80001fe0:	00144783          	lbu	a5,1(s0)
80001fe4:	00140413          	addi	s0,s0,1
80001fe8:	00812623          	sw	s0,12(sp)
80001fec:	fc079ee3          	bnez	a5,80001fc8 <vsnprintf+0x54>
80001ff0:	41248533          	sub	a0,s1,s2
80001ff4:	00048023          	sb	zero,0(s1)
80001ff8:	0e40006f          	j	800020dc <vsnprintf+0x168>
80001ffc:	000b8613          	mv	a2,s7
80002000:	01010593          	addi	a1,sp,16
80002004:	00c10513          	addi	a0,sp,12
80002008:	d55ff0ef          	jal	ra,80001d5c <parse_format>
8000200c:	00c12403          	lw	s0,12(sp)
80002010:	06e00713          	li	a4,110
80002014:	00044783          	lbu	a5,0(s0)
80002018:	28e78c63          	beq	a5,a4,800022b0 <vsnprintf+0x33c>
8000201c:	0ef76663          	bltu	a4,a5,80002108 <vsnprintf+0x194>
80002020:	2f678463          	beq	a5,s6,80002308 <vsnprintf+0x394>
80002024:	06300713          	li	a4,99
80002028:	20e79463          	bne	a5,a4,80002230 <vsnprintf+0x2bc>
8000202c:	01412603          	lw	a2,20(sp)
80002030:	01012703          	lw	a4,16(sp)
80002034:	412486b3          	sub	a3,s1,s2
80002038:	fff60613          	addi	a2,a2,-1
8000203c:	01077793          	andi	a5,a4,16
80002040:	00c12a23          	sw	a2,20(sp)
80002044:	1a078463          	beqz	a5,800021ec <vsnprintf+0x278>
80002048:	38c05a63          	blez	a2,800023dc <vsnprintf+0x468>
8000204c:	0936f663          	bgeu	a3,s3,800020d8 <vsnprintf+0x164>
80002050:	00c48833          	add	a6,s1,a2
80002054:	00048793          	mv	a5,s1
80002058:	02000513          	li	a0,32
8000205c:	0080006f          	j	80002064 <vsnprintf+0xf0>
80002060:	0736fc63          	bgeu	a3,s3,800020d8 <vsnprintf+0x164>
80002064:	00178793          	addi	a5,a5,1
80002068:	40f606b3          	sub	a3,a2,a5
8000206c:	fea78fa3          	sb	a0,-1(a5)
80002070:	00d485b3          	add	a1,s1,a3
80002074:	00276713          	ori	a4,a4,2
80002078:	412786b3          	sub	a3,a5,s2
8000207c:	ff0792e3          	bne	a5,a6,80002060 <vsnprintf+0xec>
80002080:	00e12823          	sw	a4,16(sp)
80002084:	00b12a23          	sw	a1,20(sp)
80002088:	0536f863          	bgeu	a3,s3,800020d8 <vsnprintf+0x164>
8000208c:	01412683          	lw	a3,20(sp)
80002090:	000ba603          	lw	a2,0(s7)
80002094:	00178493          	addi	s1,a5,1
80002098:	fff68713          	addi	a4,a3,-1
8000209c:	00c78023          	sb	a2,0(a5)
800020a0:	00e12a23          	sw	a4,20(sp)
800020a4:	004b8b93          	addi	s7,s7,4
800020a8:	f2e05ce3          	blez	a4,80001fe0 <vsnprintf+0x6c>
800020ac:	41248733          	sub	a4,s1,s2
800020b0:	03377463          	bgeu	a4,s3,800020d8 <vsnprintf+0x164>
800020b4:	00d785b3          	add	a1,a5,a3
800020b8:	02000613          	li	a2,32
800020bc:	00148493          	addi	s1,s1,1
800020c0:	40968733          	sub	a4,a3,s1
800020c4:	fec48fa3          	sb	a2,-1(s1)
800020c8:	00e78733          	add	a4,a5,a4
800020cc:	2c958c63          	beq	a1,s1,800023a4 <vsnprintf+0x430>
800020d0:	41248733          	sub	a4,s1,s2
800020d4:	ff3764e3          	bltu	a4,s3,800020bc <vsnprintf+0x148>
800020d8:	fff00513          	li	a0,-1
800020dc:	04c12083          	lw	ra,76(sp)
800020e0:	04812403          	lw	s0,72(sp)
800020e4:	04412483          	lw	s1,68(sp)
800020e8:	04012903          	lw	s2,64(sp)
800020ec:	03c12983          	lw	s3,60(sp)
800020f0:	03812a03          	lw	s4,56(sp)
800020f4:	03412a83          	lw	s5,52(sp)
800020f8:	03012b03          	lw	s6,48(sp)
800020fc:	02c12b83          	lw	s7,44(sp)
80002100:	05010113          	addi	sp,sp,80
80002104:	00008067          	ret
80002108:	07000713          	li	a4,112
8000210c:	1ae78c63          	beq	a5,a4,800022c4 <vsnprintf+0x350>
80002110:	07300713          	li	a4,115
80002114:	10e79e63          	bne	a5,a4,80002230 <vsnprintf+0x2bc>
80002118:	000ba803          	lw	a6,0(s7)
8000211c:	004b8b93          	addi	s7,s7,4
80002120:	2e080063          	beqz	a6,80002400 <vsnprintf+0x48c>
80002124:	01812603          	lw	a2,24(sp)
80002128:	00080713          	mv	a4,a6
8000212c:	00000693          	li	a3,0
80002130:	02061063          	bnez	a2,80002150 <vsnprintf+0x1dc>
80002134:	2a00006f          	j	800023d4 <vsnprintf+0x460>
80002138:	0e07f793          	andi	a5,a5,224
8000213c:	01479463          	bne	a5,s4,80002144 <vsnprintf+0x1d0>
80002140:	00270713          	addi	a4,a4,2
80002144:	00168693          	addi	a3,a3,1
80002148:	00170713          	addi	a4,a4,1
8000214c:	00d60663          	beq	a2,a3,80002158 <vsnprintf+0x1e4>
80002150:	00074783          	lbu	a5,0(a4)
80002154:	fe0792e3          	bnez	a5,80002138 <vsnprintf+0x1c4>
80002158:	41070733          	sub	a4,a4,a6
8000215c:	01412783          	lw	a5,20(sp)
80002160:	01012683          	lw	a3,16(sp)
80002164:	fff78513          	addi	a0,a5,-1
80002168:	0106f613          	andi	a2,a3,16
8000216c:	00a12a23          	sw	a0,20(sp)
80002170:	1a061663          	bnez	a2,8000231c <vsnprintf+0x3a8>
80002174:	26f75863          	bge	a4,a5,800023e4 <vsnprintf+0x470>
80002178:	41248633          	sub	a2,s1,s2
8000217c:	f5367ee3          	bgeu	a2,s3,800020d8 <vsnprintf+0x164>
80002180:	40e787b3          	sub	a5,a5,a4
80002184:	00f48633          	add	a2,s1,a5
80002188:	02000893          	li	a7,32
8000218c:	00048793          	mv	a5,s1
80002190:	00c0006f          	j	8000219c <vsnprintf+0x228>
80002194:	412785b3          	sub	a1,a5,s2
80002198:	f535f0e3          	bgeu	a1,s3,800020d8 <vsnprintf+0x164>
8000219c:	00178793          	addi	a5,a5,1
800021a0:	40f505b3          	sub	a1,a0,a5
800021a4:	ff178fa3          	sb	a7,-1(a5)
800021a8:	ffd6f693          	andi	a3,a3,-3
800021ac:	00b485b3          	add	a1,s1,a1
800021b0:	fec792e3          	bne	a5,a2,80002194 <vsnprintf+0x220>
800021b4:	00d12823          	sw	a3,16(sp)
800021b8:	00b12a23          	sw	a1,20(sp)
800021bc:	1ee05063          	blez	a4,8000239c <vsnprintf+0x428>
800021c0:	412786b3          	sub	a3,a5,s2
800021c4:	f136fae3          	bgeu	a3,s3,800020d8 <vsnprintf+0x164>
800021c8:	00e784b3          	add	s1,a5,a4
800021cc:	00084703          	lbu	a4,0(a6)
800021d0:	00178793          	addi	a5,a5,1
800021d4:	00180813          	addi	a6,a6,1
800021d8:	fee78fa3          	sb	a4,-1(a5)
800021dc:	e0f482e3          	beq	s1,a5,80001fe0 <vsnprintf+0x6c>
800021e0:	41278733          	sub	a4,a5,s2
800021e4:	ff3764e3          	bltu	a4,s3,800021cc <vsnprintf+0x258>
800021e8:	ef1ff06f          	j	800020d8 <vsnprintf+0x164>
800021ec:	1ec05863          	blez	a2,800023dc <vsnprintf+0x468>
800021f0:	ef36f4e3          	bgeu	a3,s3,800020d8 <vsnprintf+0x164>
800021f4:	00c48833          	add	a6,s1,a2
800021f8:	00048793          	mv	a5,s1
800021fc:	02000513          	li	a0,32
80002200:	0080006f          	j	80002208 <vsnprintf+0x294>
80002204:	ed36fae3          	bgeu	a3,s3,800020d8 <vsnprintf+0x164>
80002208:	00178793          	addi	a5,a5,1
8000220c:	40f606b3          	sub	a3,a2,a5
80002210:	fea78fa3          	sb	a0,-1(a5)
80002214:	00d485b3          	add	a1,s1,a3
80002218:	ffd77713          	andi	a4,a4,-3
8000221c:	412786b3          	sub	a3,a5,s2
80002220:	ff0792e3          	bne	a5,a6,80002204 <vsnprintf+0x290>
80002224:	00e12823          	sw	a4,16(sp)
80002228:	00b12a23          	sw	a1,20(sp)
8000222c:	e5dff06f          	j	80002088 <vsnprintf+0x114>
80002230:	01412683          	lw	a3,20(sp)
80002234:	01012783          	lw	a5,16(sp)
80002238:	00068663          	beqz	a3,80002244 <vsnprintf+0x2d0>
8000223c:	0016f713          	andi	a4,a3,1
80002240:	12070463          	beqz	a4,80002368 <vsnprintf+0x3f4>
80002244:	01c12703          	lw	a4,28(sp)
80002248:	ffe7f793          	andi	a5,a5,-2
8000224c:	00f12823          	sw	a5,16(sp)
80002250:	06c00613          	li	a2,108
80002254:	12c70463          	beq	a4,a2,8000237c <vsnprintf+0x408>
80002258:	03100613          	li	a2,49
8000225c:	12c70663          	beq	a4,a2,80002388 <vsnprintf+0x414>
80002260:	06800613          	li	a2,104
80002264:	004b8513          	addi	a0,s7,4
80002268:	14c70263          	beq	a4,a2,800023ac <vsnprintf+0x438>
8000226c:	000ba583          	lw	a1,0(s7)
80002270:	00050b93          	mv	s7,a0
80002274:	00300613          	li	a2,3
80002278:	02c6e633          	rem	a2,a3,a2
8000227c:	00500513          	li	a0,5
80002280:	fff68713          	addi	a4,a3,-1
80002284:	00163613          	seqz	a2,a2
80002288:	40c00633          	neg	a2,a2
8000228c:	ff867613          	andi	a2,a2,-8
80002290:	00a60613          	addi	a2,a2,10
80002294:	00d55463          	bge	a0,a3,8000229c <vsnprintf+0x328>
80002298:	4016d713          	srai	a4,a3,0x1
8000229c:	00048513          	mv	a0,s1
800022a0:	00e12c23          	sw	a4,24(sp)
800022a4:	849ff0ef          	jal	ra,80001aec <delt>
800022a8:	00050493          	mv	s1,a0
800022ac:	d35ff06f          	j	80001fe0 <vsnprintf+0x6c>
800022b0:	000ba683          	lw	a3,0(s7)
800022b4:	41248633          	sub	a2,s1,s2
800022b8:	004b8b93          	addi	s7,s7,4
800022bc:	00c6a023          	sw	a2,0(a3)
800022c0:	d21ff06f          	j	80001fe0 <vsnprintf+0x6c>
800022c4:	01412683          	lw	a3,20(sp)
800022c8:	fff00713          	li	a4,-1
800022cc:	01012783          	lw	a5,16(sp)
800022d0:	00e69c63          	bne	a3,a4,800022e8 <vsnprintf+0x374>
800022d4:	0017e793          	ori	a5,a5,1
800022d8:	00800713          	li	a4,8
800022dc:	00e12a23          	sw	a4,20(sp)
800022e0:	00f12823          	sw	a5,16(sp)
800022e4:	00800693          	li	a3,8
800022e8:	000ba583          	lw	a1,0(s7)
800022ec:	01812703          	lw	a4,24(sp)
800022f0:	00048513          	mv	a0,s1
800022f4:	01000613          	li	a2,16
800022f8:	ff4ff0ef          	jal	ra,80001aec <delt>
800022fc:	004b8b93          	addi	s7,s7,4
80002300:	00050493          	mv	s1,a0
80002304:	cddff06f          	j	80001fe0 <vsnprintf+0x6c>
80002308:	412487b3          	sub	a5,s1,s2
8000230c:	dd37f6e3          	bgeu	a5,s3,800020d8 <vsnprintf+0x164>
80002310:	01648023          	sb	s6,0(s1)
80002314:	00148493          	addi	s1,s1,1
80002318:	cc9ff06f          	j	80001fe0 <vsnprintf+0x6c>
8000231c:	0cf75463          	bge	a4,a5,800023e4 <vsnprintf+0x470>
80002320:	41248633          	sub	a2,s1,s2
80002324:	db367ae3          	bgeu	a2,s3,800020d8 <vsnprintf+0x164>
80002328:	40e787b3          	sub	a5,a5,a4
8000232c:	00f48633          	add	a2,s1,a5
80002330:	02000893          	li	a7,32
80002334:	00048793          	mv	a5,s1
80002338:	00c0006f          	j	80002344 <vsnprintf+0x3d0>
8000233c:	412785b3          	sub	a1,a5,s2
80002340:	d935fce3          	bgeu	a1,s3,800020d8 <vsnprintf+0x164>
80002344:	00178793          	addi	a5,a5,1
80002348:	40f505b3          	sub	a1,a0,a5
8000234c:	ff178fa3          	sb	a7,-1(a5)
80002350:	0026e693          	ori	a3,a3,2
80002354:	00b485b3          	add	a1,s1,a1
80002358:	fef612e3          	bne	a2,a5,8000233c <vsnprintf+0x3c8>
8000235c:	00d12823          	sw	a3,16(sp)
80002360:	00b12a23          	sw	a1,20(sp)
80002364:	e59ff06f          	j	800021bc <vsnprintf+0x248>
80002368:	01c12703          	lw	a4,28(sp)
8000236c:	0017e793          	ori	a5,a5,1
80002370:	00f12823          	sw	a5,16(sp)
80002374:	06c00613          	li	a2,108
80002378:	eec710e3          	bne	a4,a2,80002258 <vsnprintf+0x2e4>
8000237c:	000ba583          	lw	a1,0(s7)
80002380:	004b8b93          	addi	s7,s7,4
80002384:	ef1ff06f          	j	80002274 <vsnprintf+0x300>
80002388:	007b8b93          	addi	s7,s7,7
8000238c:	ff8bfb93          	andi	s7,s7,-8
80002390:	000ba583          	lw	a1,0(s7)
80002394:	008b8b93          	addi	s7,s7,8
80002398:	eddff06f          	j	80002274 <vsnprintf+0x300>
8000239c:	00078493          	mv	s1,a5
800023a0:	c41ff06f          	j	80001fe0 <vsnprintf+0x6c>
800023a4:	00e12a23          	sw	a4,20(sp)
800023a8:	c39ff06f          	j	80001fe0 <vsnprintf+0x6c>
800023ac:	0027f713          	andi	a4,a5,2
800023b0:	000ba583          	lw	a1,0(s7)
800023b4:	00070a63          	beqz	a4,800023c8 <vsnprintf+0x454>
800023b8:	01059593          	slli	a1,a1,0x10
800023bc:	4105d593          	srai	a1,a1,0x10
800023c0:	00050b93          	mv	s7,a0
800023c4:	eb1ff06f          	j	80002274 <vsnprintf+0x300>
800023c8:	0155f5b3          	and	a1,a1,s5
800023cc:	00050b93          	mv	s7,a0
800023d0:	ea5ff06f          	j	80002274 <vsnprintf+0x300>
800023d4:	00000713          	li	a4,0
800023d8:	d85ff06f          	j	8000215c <vsnprintf+0x1e8>
800023dc:	00048793          	mv	a5,s1
800023e0:	ca9ff06f          	j	80002088 <vsnprintf+0x114>
800023e4:	00048793          	mv	a5,s1
800023e8:	dce04ce3          	bgtz	a4,800021c0 <vsnprintf+0x24c>
800023ec:	fb1ff06f          	j	8000239c <vsnprintf+0x428>
800023f0:	00050493          	mv	s1,a0
800023f4:	00048023          	sb	zero,0(s1)
800023f8:	00000513          	li	a0,0
800023fc:	ce1ff06f          	j	800020dc <vsnprintf+0x168>
80002400:	11800613          	li	a2,280
80002404:	00002597          	auipc	a1,0x2
80002408:	9dc58593          	addi	a1,a1,-1572 # 80003de0 <segments+0x84>
8000240c:	00002517          	auipc	a0,0x2
80002410:	8f450513          	addi	a0,a0,-1804 # 80003d00 <__func__.0+0xc4>
80002414:	044000ef          	jal	ra,80002458 <printf>
80002418:	00100513          	li	a0,1
8000241c:	da5fe0ef          	jal	ra,800011c0 <halt>

80002420 <snprintf>:
80002420:	fc010113          	addi	sp,sp,-64
80002424:	02c10313          	addi	t1,sp,44
80002428:	02d12623          	sw	a3,44(sp)
8000242c:	00030693          	mv	a3,t1
80002430:	00112e23          	sw	ra,28(sp)
80002434:	02e12823          	sw	a4,48(sp)
80002438:	02f12a23          	sw	a5,52(sp)
8000243c:	03012c23          	sw	a6,56(sp)
80002440:	03112e23          	sw	a7,60(sp)
80002444:	00612623          	sw	t1,12(sp)
80002448:	b2dff0ef          	jal	ra,80001f74 <vsnprintf>
8000244c:	01c12083          	lw	ra,28(sp)
80002450:	04010113          	addi	sp,sp,64
80002454:	00008067          	ret

80002458 <printf>:
80002458:	00001e37          	lui	t3,0x1
8000245c:	fb010113          	addi	sp,sp,-80
80002460:	fffff2b7          	lui	t0,0xfffff
80002464:	02912223          	sw	s1,36(sp)
80002468:	02112623          	sw	ra,44(sp)
8000246c:	02812423          	sw	s0,40(sp)
80002470:	fffff337          	lui	t1,0xfffff
80002474:	00510133          	add	sp,sp,t0
80002478:	010e0e93          	addi	t4,t3,16 # 1010 <_entry_offset+0x1010>
8000247c:	006e8eb3          	add	t4,t4,t1
80002480:	01010313          	addi	t1,sp,16
80002484:	01010f13          	addi	t5,sp,16
80002488:	006e8333          	add	t1,t4,t1
8000248c:	024e0e93          	addi	t4,t3,36
80002490:	00612623          	sw	t1,12(sp)
80002494:	01ee8eb3          	add	t4,t4,t5
80002498:	00bea023          	sw	a1,0(t4)
8000249c:	028e0593          	addi	a1,t3,40
800024a0:	01e585b3          	add	a1,a1,t5
800024a4:	00c5a023          	sw	a2,0(a1)
800024a8:	02ce0613          	addi	a2,t3,44
800024ac:	01e60633          	add	a2,a2,t5
800024b0:	030e0e93          	addi	t4,t3,48
800024b4:	00d62023          	sw	a3,0(a2)
800024b8:	01ee8eb3          	add	t4,t4,t5
800024bc:	00050613          	mv	a2,a0
800024c0:	00c12503          	lw	a0,12(sp)
800024c4:	00eea023          	sw	a4,0(t4)
800024c8:	034e0713          	addi	a4,t3,52
800024cc:	01e70733          	add	a4,a4,t5
800024d0:	00f72023          	sw	a5,0(a4)
800024d4:	038e0793          	addi	a5,t3,56
800024d8:	01e787b3          	add	a5,a5,t5
800024dc:	0107a023          	sw	a6,0(a5)
800024e0:	03ce0793          	addi	a5,t3,60
800024e4:	01e787b3          	add	a5,a5,t5
800024e8:	0117a023          	sw	a7,0(a5)
800024ec:	00c12783          	lw	a5,12(sp)
800024f0:	034e0313          	addi	t1,t3,52
800024f4:	00230333          	add	t1,t1,sp
800024f8:	800005b7          	lui	a1,0x80000
800024fc:	fe67ae23          	sw	t1,-4(a5)
80002500:	00030693          	mv	a3,t1
80002504:	fff5c593          	not	a1,a1
80002508:	a6dff0ef          	jal	ra,80001f74 <vsnprintf>
8000250c:	00c12783          	lw	a5,12(sp)
80002510:	00050493          	mv	s1,a0
80002514:	0007c503          	lbu	a0,0(a5)
80002518:	00050c63          	beqz	a0,80002530 <printf+0xd8>
8000251c:	00078413          	mv	s0,a5
80002520:	00140413          	addi	s0,s0,1
80002524:	c91fe0ef          	jal	ra,800011b4 <putch>
80002528:	00044503          	lbu	a0,0(s0)
8000252c:	fe051ae3          	bnez	a0,80002520 <printf+0xc8>
80002530:	000012b7          	lui	t0,0x1
80002534:	00510133          	add	sp,sp,t0
80002538:	02c12083          	lw	ra,44(sp)
8000253c:	00048513          	mv	a0,s1
80002540:	02812403          	lw	s0,40(sp)
80002544:	02412483          	lw	s1,36(sp)
80002548:	05010113          	addi	sp,sp,80
8000254c:	00008067          	ret

80002550 <sprintf>:
80002550:	fc010113          	addi	sp,sp,-64
80002554:	02810313          	addi	t1,sp,40
80002558:	02c12423          	sw	a2,40(sp)
8000255c:	00058613          	mv	a2,a1
80002560:	800005b7          	lui	a1,0x80000
80002564:	02d12623          	sw	a3,44(sp)
80002568:	fff5c593          	not	a1,a1
8000256c:	00030693          	mv	a3,t1
80002570:	00112e23          	sw	ra,28(sp)
80002574:	02e12823          	sw	a4,48(sp)
80002578:	02f12a23          	sw	a5,52(sp)
8000257c:	03012c23          	sw	a6,56(sp)
80002580:	03112e23          	sw	a7,60(sp)
80002584:	00612623          	sw	t1,12(sp)
80002588:	9edff0ef          	jal	ra,80001f74 <vsnprintf>
8000258c:	01c12083          	lw	ra,28(sp)
80002590:	04010113          	addi	sp,sp,64
80002594:	00008067          	ret

80002598 <strlen>:
80002598:	00054783          	lbu	a5,0(a0)
8000259c:	00050693          	mv	a3,a0
800025a0:	02078063          	beqz	a5,800025c0 <strlen+0x28>
800025a4:	00000793          	li	a5,0
800025a8:	00178793          	addi	a5,a5,1
800025ac:	00f68733          	add	a4,a3,a5
800025b0:	00074703          	lbu	a4,0(a4)
800025b4:	00078513          	mv	a0,a5
800025b8:	fe0718e3          	bnez	a4,800025a8 <strlen+0x10>
800025bc:	00008067          	ret
800025c0:	00000513          	li	a0,0
800025c4:	00008067          	ret

800025c8 <strcmp>:
800025c8:	00054703          	lbu	a4,0(a0)
800025cc:	00071c63          	bnez	a4,800025e4 <strcmp+0x1c>
800025d0:	0380006f          	j	80002608 <strcmp+0x40>
800025d4:	02e79063          	bne	a5,a4,800025f4 <strcmp+0x2c>
800025d8:	00054703          	lbu	a4,0(a0)
800025dc:	02070063          	beqz	a4,800025fc <strcmp+0x34>
800025e0:	00068593          	mv	a1,a3
800025e4:	0005c783          	lbu	a5,0(a1) # 80000000 <_end+0xfdeb8000>
800025e8:	00150513          	addi	a0,a0,1
800025ec:	00158693          	addi	a3,a1,1
800025f0:	fe0792e3          	bnez	a5,800025d4 <strcmp+0xc>
800025f4:	40f70533          	sub	a0,a4,a5
800025f8:	00008067          	ret
800025fc:	0015c783          	lbu	a5,1(a1)
80002600:	40f70533          	sub	a0,a4,a5
80002604:	00008067          	ret
80002608:	0005c783          	lbu	a5,0(a1)
8000260c:	fe9ff06f          	j	800025f4 <strcmp+0x2c>

80002610 <memset>:
80002610:	0ff5f593          	zext.b	a1,a1
80002614:	00c50733          	add	a4,a0,a2
80002618:	00050793          	mv	a5,a0
8000261c:	00060863          	beqz	a2,8000262c <memset+0x1c>
80002620:	00178793          	addi	a5,a5,1
80002624:	feb78fa3          	sb	a1,-1(a5)
80002628:	fee79ce3          	bne	a5,a4,80002620 <memset+0x10>
8000262c:	00008067          	ret

80002630 <memcpy>:
80002630:	02060063          	beqz	a2,80002650 <memcpy+0x20>
80002634:	00c50633          	add	a2,a0,a2
80002638:	00050793          	mv	a5,a0
8000263c:	0005c703          	lbu	a4,0(a1)
80002640:	00178793          	addi	a5,a5,1
80002644:	00158593          	addi	a1,a1,1
80002648:	fee78fa3          	sb	a4,-1(a5)
8000264c:	fec798e3          	bne	a5,a2,8000263c <memcpy+0xc>
80002650:	00008067          	ret
